BL51 BANKED LINKER/LOCATER V6.00                                                        07/28/2017  21:19:49  PAGE 1


BL51 BANKED LINKER/LOCATER V6.00, INVOKED BY:
C:\KEIL_V5\C51\BIN\BL51.EXE .\absTask.obj, .\task.obj, .\setup.obj, .\mode.obj, .\direction.obj, .\Conf_tny.obj, .\FILTE
>> R.obj, .\DataScope_DP.obj, .\storage.obj, .\BUTTON.obj, .\LED.obj, .\STEP_MOTOR.obj, .\LCD5510_V2.obj, .\ANGLE.obj, .
>> \fixedPulser.obj, .\delay.obj, .\GPIO.obj, .\stc15_pwm.obj, .\timer.obj, .\USART1.obj, .\ADC.obj TO 悬挂运动控制系统 
>> RTX51TINY RAMSIZE (256)


MEMORY MODEL: LARGE WITH FLOATING POINT ARITHMETIC


INPUT MODULES INCLUDED:
  .\absTask.obj (ABSTASK)
  .\task.obj (TASK)
  .\setup.obj (SETUP)
  .\mode.obj (MODE)
  .\direction.obj (DIRECTION)
  .\Conf_tny.obj (?RTX51_TINY_KERNAL)
  .\FILTER.obj (FILTER)
  .\DataScope_DP.obj (DATASCOPE_DP)
  .\storage.obj (STORAGE)
  .\BUTTON.obj (BUTTON)
  .\LED.obj (LED)
  .\STEP_MOTOR.obj (STEP_MOTOR)
  .\LCD5510_V2.obj (LCD5510_V2)
  .\ANGLE.obj (ANGLE)
  .\fixedPulser.obj (FIXEDPULSER)
  .\delay.obj (DELAY)
  .\GPIO.obj (GPIO)
  .\stc15_pwm.obj (STC15_PWM)
  .\timer.obj (TIMER)
  .\USART1.obj (USART1)
  .\ADC.obj (ADC)
  C:\KEIL_V5\C51\LIB\RTX51TNY.LIB (?RTX51_TINY_OS_CREATE)
  C:\KEIL_V5\C51\LIB\RTX51TNY.LIB (?RTX51_TINY_OS_DELETE)
  C:\KEIL_V5\C51\LIB\RTX51TNY.LIB (?RTX51_TINY_OS_WAIT)
  C:\KEIL_V5\C51\LIB\C51FPL.LIB (?C?FPADD)
  C:\KEIL_V5\C51\LIB\C51FPL.LIB (?C?FPMUL)
  C:\KEIL_V5\C51\LIB\C51FPL.LIB (?C?FPDIV)
  C:\KEIL_V5\C51\LIB\C51FPL.LIB (?C?FPCMP)
  C:\KEIL_V5\C51\LIB\C51FPL.LIB (?C?FCAST)
  C:\KEIL_V5\C51\LIB\C51FPL.LIB (?C?CASTF)
  C:\KEIL_V5\C51\LIB\C51FPL.LIB (PRINTF)
  C:\KEIL_V5\C51\LIB\C51FPL.LIB (FABS)
  C:\KEIL_V5\C51\LIB\C51FPL.LIB (SQRT)
  C:\KEIL_V5\C51\LIB\C51FPL.LIB (SIN)
  C:\KEIL_V5\C51\LIB\C51FPL.LIB (POW)
  C:\KEIL_V5\C51\LIB\C51FPL.LIB (?C?FPGETOPN)
  C:\KEIL_V5\C51\LIB\C51FPL.LIB (?C?CHKFLOAT)
  C:\KEIL_V5\C51\LIB\C51FPL.LIB (?C?FPNEG)
  C:\KEIL_V5\C51\LIB\C51FPL.LIB (?C?FPROUND)
  C:\KEIL_V5\C51\LIB\C51FPL.LIB (?C?FPCONVERT)
  C:\KEIL_V5\C51\LIB\C51FPL.LIB (?C?FPSERIES)
  C:\KEIL_V5\C51\LIB\C51FPL.LIB (EXP)
  C:\KEIL_V5\C51\LIB\C51FPL.LIB (LOG)
  C:\KEIL_V5\C51\LIB\C51FPL.LIB (?C?FTNPWR)
  C:\KEIL_V5\C51\LIB\C51L.LIB (?C_STARTUP)
  C:\KEIL_V5\C51\LIB\C51L.LIB (?C?COPY)
  C:\KEIL_V5\C51\LIB\C51L.LIB (?C?CLDPTR)
BL51 BANKED LINKER/LOCATER V6.00                                                      07/28/2017  21:19:49  PAGE 2


  C:\KEIL_V5\C51\LIB\C51L.LIB (?C?CLDOPTR)
  C:\KEIL_V5\C51\LIB\C51L.LIB (?C?CSTPTR)
  C:\KEIL_V5\C51\LIB\C51L.LIB (?C?CSTOPTR)
  C:\KEIL_V5\C51\LIB\C51L.LIB (?C?IMUL)
  C:\KEIL_V5\C51\LIB\C51L.LIB (?C?UIDIV)
  C:\KEIL_V5\C51\LIB\C51L.LIB (?C?IILDX)
  C:\KEIL_V5\C51\LIB\C51L.LIB (?C?ILDOPTR)
  C:\KEIL_V5\C51\LIB\C51L.LIB (?C?LMUL)
  C:\KEIL_V5\C51\LIB\C51L.LIB (?C?ULDIV)
  C:\KEIL_V5\C51\LIB\C51L.LIB (?C?SLDIV)
  C:\KEIL_V5\C51\LIB\C51L.LIB (?C?LNEG)
  C:\KEIL_V5\C51\LIB\C51L.LIB (?C?ULCMP)
  C:\KEIL_V5\C51\LIB\C51L.LIB (?C?ULSHR)
  C:\KEIL_V5\C51\LIB\C51L.LIB (?C?LLDXDATA)
  C:\KEIL_V5\C51\LIB\C51L.LIB (?C?LLDCODE)
  C:\KEIL_V5\C51\LIB\C51L.LIB (?C?LLDXDATA0)
  C:\KEIL_V5\C51\LIB\C51L.LIB (?C?LLDCODE0)
  C:\KEIL_V5\C51\LIB\C51L.LIB (?C?LLDOPTR0)
  C:\KEIL_V5\C51\LIB\C51L.LIB (?C?LSTXDATA)
  C:\KEIL_V5\C51\LIB\C51L.LIB (?C?LSTKXDATA)
  C:\KEIL_V5\C51\LIB\C51L.LIB (?C?PLDIXDATA)
  C:\KEIL_V5\C51\LIB\C51L.LIB (?C?PSTXDATA)
  C:\KEIL_V5\C51\LIB\C51L.LIB (?C?CCASE)
  C:\KEIL_V5\C51\LIB\C51L.LIB (PUTCHAR)
  C:\KEIL_V5\C51\LIB\C51L.LIB (?C_INIT)
  C:\KEIL_V5\C51\LIB\C51L.LIB (?C?LLDIDATA0)
  C:\KEIL_V5\C51\LIB\C51L.LIB (?C?LLDPDATA0)


TASK TABLE OF MODULE:  悬挂运动控制系统 (ABSTASK)

TASKID   PRIORITY   REG-BANK   SEGMENT NAME
-------------------------------------------
0        0          0          ?PR?TASKSTART?ABSTASK
1        0          0          ?PR?LEFTSTEPMOTORSTATEUPDATE?ABSTASK
2        0          0          ?PR?RIGHTSTEPMOTORSTATEUPDATE?ABSTASK
3        0          0          ?PR?SYSTEMSTATEUPDATE?ABSTASK
4        0          0          ?PR?SYSTEMGATESTATEUPDATE?ABSTASK
5        0          0          ?PR?SYSTEMGATEADC_VALUEUPDATE?ABSTASK
6        0          0          ?PR?SYSTEMTEST?ABSTASK
7        0          0          ?PR?PRINTGATESTATE?ABSTASK
8        0          0          ?PR?PRINTADCVALUE?ABSTASK
9        0          0          ?PR?TRACKING?ABSTASK



LINK MAP OF MODULE:  悬挂运动控制系统 (ABSTASK)


            TYPE    BASE      LENGTH    RELOCATION   SEGMENT NAME
            -----------------------------------------------------

            * * * * * * *   D A T A   M E M O R Y   * * * * * * *
            REG     0000H     0008H     ABSOLUTE     "REG BANK 0"
            DATA    0008H     0005H     ABSOLUTE     
            DATA    000DH     000AH     UNIT         _DATA_GROUP_
                    0017H     0009H                  *** GAP ***
BL51 BANKED LINKER/LOCATER V6.00                                                      07/28/2017  21:19:49  PAGE 3


            BIT     0020H.0   0002H.2   UNIT         _BIT_GROUP_
            BIT     0022H.2   0000H.4   UNIT         ?BI?BUTTON
            BIT     0022H.6   0000H.2   UNIT         ?BI?FIXEDPULSER
            BIT     0023H.0   0000H.1   UNIT         ?BI?LED
            BIT     0023H.1   0000H.1   UNIT         ?BI?GETANGLE?ANGLE
            BIT     0023H.2   0000H.1   UNIT         ?BI?_SETPINSTATE?GPIO
            BIT     0023H.3   0000H.1   UNIT         ?BI?SIN?SIN
                    0023H.4   0000H.4                *** GAP ***
            IDATA   0024H     0014H     UNIT         ?RTX?TASKSTATE?S
            IDATA   0038H     000AH     UNIT         ?RTX?TASKSP?S
            IDATA   0042H     0001H     UNIT         ?STACK

            * * * * * * *  X D A T A   M E M O R Y  * * * * * * *
            XDATA   0000H     028CH     UNIT         ?XD?USART1
            XDATA   028CH     0176H     UNIT         _XDATA_GROUP_
            XDATA   0402H     006DH     UNIT         ?XD?ABSTASK
            XDATA   046FH     0045H     UNIT         ?XD?DIRECTION
            XDATA   04B4H     003CH     UNIT         ?XD?STC15_PWM
            XDATA   04F0H     0039H     UNIT         ?XD?TASK
            XDATA   0529H     0039H     UNIT         ?XD?SETUP
            XDATA   0562H     002AH     UNIT         ?XD?DATASCOPE_DP
            XDATA   058CH     001CH     UNIT         ?XD?STEP_MOTOR
            XDATA   05A8H     001AH     UNIT         ?XD?_DRAWCIRCLE?ABSTASK
            XDATA   05C2H     0018H     UNIT         ?XD?FIXEDPULSER
            XDATA   05DAH     0016H     UNIT         ?XD?TIMER
            XDATA   05F0H     0015H     UNIT         ?XD?GETANGLE?ANGLE
            XDATA   0605H     0008H     UNIT         ?XD?ANGLE
            XDATA   060DH     0007H     UNIT         ?XD?_SETSTEPMOTORWITHDISTANCE?STEP_MOTOR
            XDATA   0614H     0007H     UNIT         ?XD?_SETSTEPMOTORWITHANGLE?STEP_MOTOR
            XDATA   061BH     0006H     UNIT         ?XD?_ADC_CONFIG?ANGLE
            XDATA   0621H     0005H     UNIT         ?XD?_WRITEDATA?STORAGE
            XDATA   0626H     0005H     UNIT         ?XD?_LCD_PRINTS?LCD5510_V2
            XDATA   062BH     0005H     UNIT         ?XD?_LCD_PRINTSL?LCD5510_V2
            XDATA   0630H     0005H     UNIT         ?XD?_SET_PWM_DUTY?STC15_PWM
            XDATA   0635H     0004H     UNIT         ?XD?SIN?SIN
            XDATA   0639H     0002H     UNIT         ?XD?DRAWLOOPSRTLINE?ABSTASK
            XDATA   063BH     0002H     UNIT         ?XD?DRAWLINE?ABSTASK
            XDATA   063DH     0002H     UNIT         ?XD?BUTTON_CONFIG?BUTTON
            XDATA   063FH     0002H     UNIT         ?XD?_SETSTEPMOTORWITHROUND?STEP_MOTOR
            XDATA   0641H     0002H     UNIT         ?XD?LCD5510_INIT?LCD5510_V2
            XDATA   0643H     0002H     UNIT         ?XD?_SET_PWM_PERIOD?STC15_PWM
            XDATA   0645H     0002H     UNIT         ?XD?_PWM_INILIZE?STC15_PWM
            XDATA   0647H     0001H     UNIT         ?XD?DRAWLOOPRECTANGLE?ABSTASK
            XDATA   0648H     0001H     UNIT         ?XD?_BOARD_LED_PWM?LED
            XDATA   0649H     0001H     UNIT         ?XD?_CLOSE_STEPMOTOR?STEP_MOTOR

            * * * * * * *   C O D E   M E M O R Y   * * * * * * *
            CODE    0000H     0003H     ABSOLUTE     
                    0003H     0008H                  *** GAP ***
            CODE    000BH     0003H     ABSOLUTE     
                    000EH     0015H                  *** GAP ***
            CODE    0023H     0003H     ABSOLUTE     
                    0026H     0005H                  *** GAP ***
            CODE    002BH     0003H     ABSOLUTE     
                    002EH     0015H                  *** GAP ***
            CODE    0043H     0003H     ABSOLUTE     
                    0046H     001DH                  *** GAP ***
BL51 BANKED LINKER/LOCATER V6.00                                                      07/28/2017  21:19:49  PAGE 4


            CODE    0063H     0003H     ABSOLUTE     
                    0066H     0025H                  *** GAP ***
            CODE    008BH     0003H     ABSOLUTE     
                    008EH     0005H                  *** GAP ***
            CODE    0093H     0003H     ABSOLUTE     
                    0096H     0005H                  *** GAP ***
            CODE    009BH     0003H     ABSOLUTE     
                    009EH     0762H                  *** GAP ***
            CODE    0800H     0A6DH     UNIT         ?C?LIB_CODE
            CODE    126DH     06E0H     UNIT         ?PR?_USART_CONFIGURATION?USART1
            CODE    194DH     0483H     UNIT         ?PR?PRINTF?PRINTF
            CODE    1DD0H     039AH     UNIT         ?PR?_PWM_INILIZE?STC15_PWM
            CODE    216AH     031DH     UNIT         ?PR?SETSTEPMOTORDIS?TASK
            CODE    2487H     0288H     UNIT         ?RTX?CODE
            CODE    270FH     0279H     UNIT         ?CO?LCD5510_V2
            CODE    2988H     0252H     UNIT         ?PR?_TIMER_INILIZE?TIMER
            CODE    2BDAH     01CCH     UNIT         ?PR?_DRAWCIRCLE?ABSTASK
            CODE    2DA6H     01C4H     UNIT         ?PR?_GPIO_INILIZE?GPIO
            CODE    2F6AH     0188H     UNIT         ?PR?SIN?SIN
            CODE    30F2H     0166H     UNIT         ?PR?_POW?POW
            CODE    3258H     0156H     UNIT         ?PR?GATEADC_VALUEUPDATE?DIRECTION
            CODE    33AEH     0136H     UNIT         ?PR?_FILTER?FILTER
            CODE    34E4H     0134H     UNIT         ?PR?_DATASCOPE_GET_CHANNEL_DATA?DATASCOPE_DP
            CODE    3618H     0129H     UNIT         ?PR?LOG?LOG
            CODE    3741H     011DH     UNIT         ?CO?ABSTASK
            CODE    385EH     010BH     UNIT         ?PR?TRACKING?ABSTASK
            CODE    3969H     010BH     UNIT         ?PR?_GETWIRELENGTH?TASK
            CODE    3A74H     00ECH     UNIT         ?PR?_SETPULSE?FIXEDPULSER
            CODE    3B60H     00E4H     UNIT         ?PR?_SET_PWM_DUTY?STC15_PWM
            CODE    3C44H     00E0H     UNIT         ?PR?DRAWLINE?ABSTASK
            CODE    3D24H     00C7H     UNIT         ?PR?_SETSTEPMOTORWITHDISTANCE?STEP_MOTOR
            CODE    3DEBH     00BFH     UNIT         ?PR?_TWOPOINTDISTANCE?TASK
            CODE    3EAAH     00B4H     UNIT         ?C_INITSEG
            CODE    3F5EH     00ACH     UNIT         ?PR?SQRT?SQRT
            CODE    400AH     00AAH     UNIT         ?PR?_FLOAT2BYTE?DATASCOPE_DP
            CODE    40B4H     00A5H     UNIT         ?PR?_DATASCOPE_DATA_GENERATE?DATASCOPE_DP
            CODE    4159H     009FH     UNIT         ?PR?_STEPMOTOR_INIT?STEP_MOTOR
            CODE    41F8H     009AH     UNIT         ?PR?_PWM_SET_T12_PERIOD?STC15_PWM
            CODE    4292H     009AH     UNIT         ?PR?EXP?EXP
            CODE    432CH     008CH     UNIT         ?C_C51STARTUP
            CODE    43B8H     0085H     UNIT         ?PR?UART2_INT?USART1
            CODE    443DH     0085H     UNIT         ?PR?UART3_INT?USART1
            CODE    44C2H     0085H     UNIT         ?PR?UART4_INT?USART1
            CODE    4547H     007FH     UNIT         ?PR?UART1_INT?USART1
            CODE    45C6H     007BH     UNIT         ?PR?PULSER_1INT?FIXEDPULSER
            CODE    4641H     007BH     UNIT         ?PR?PULSER_2INT?FIXEDPULSER
            CODE    46BCH     007AH     UNIT         ?PR?GETANGLE?ANGLE
            CODE    4736H     006CH     UNIT         ?PR?GATESTATEUPDATE?DIRECTION
            CODE    47A2H     006AH     UNIT         ?PR?_SYSTEMLEFT?ABSTASK
            CODE    480CH     006AH     UNIT         ?PR?_SYSTEMRIGHT?ABSTASK
            CODE    4876H     0069H     UNIT         ?PR?PRINTADCVALUE?ABSTASK
            CODE    48DFH     0068H     UNIT         ?PR?PRINTGATESTATE?ABSTASK
            CODE    4947H     0065H     UNIT         ?PR?_SETSTEPMOTORWITHANGLE?STEP_MOTOR
            CODE    49ACH     0061H     UNIT         ?PR?_SET_PWM_PERIOD?STC15_PWM
            CODE    4A0DH     005EH     UNIT         ?PR?_GET_ADC10BITRESULT?ADC
            CODE    4A6BH     005AH     UNIT         ?PR?_SYSTEMUP?ABSTASK
            CODE    4AC5H     005AH     UNIT         ?PR?_SYSTEMDOWN?ABSTASK
BL51 BANKED LINKER/LOCATER V6.00                                                      07/28/2017  21:19:49  PAGE 5


            CODE    4B1FH     0057H     UNIT         ?PR?DRAWLOOPSRTLINE?ABSTASK
            CODE    4B76H     0057H     UNIT         ?PR?BUTTONSCAN?BUTTON
            CODE    4BCDH     0054H     UNIT         ?PR?TIMERINIT?TIMER
            CODE    4C21H     0053H     UNIT         ?PR?_ADC_INILIZE?ADC
            CODE    4C74H     0050H     UNIT         ?PR?TASKSTART?ABSTASK
            CODE    4CC4H     004EH     UNIT         ?PR?LCD5510_INIT?LCD5510_V2
            CODE    4D12H     004BH     UNIT         ?PR?_LCD_PRINTSL?LCD5510_V2
            CODE    4D5DH     004AH     UNIT         ?PR?MOTIONSYSTEM_INIT?TASK
            CODE    4DA7H     0044H     UNIT         ?C?LDIV
            CODE    4DEBH     003DH     UNIT         ?PR?STARTSYSTEM?TASK
            CODE    4E28H     003DH     UNIT         ?PR?_LCD_PRINTC?LCD5510_V2
            CODE    4E65H     003BH     UNIT         ?PR?_LCD_PRINTS?LCD5510_V2
            CODE    4EA0H     0039H     UNIT         ?PR?_SETSTEPMOTORWITHROUND?STEP_MOTOR
            CODE    4ED9H     0038H     UNIT         ?PR?DRAWLOOPRECTANGLE?ABSTASK
            CODE    4F11H     0038H     UNIT         ?PR?READLEFT?ABSTASK
            CODE    4F49H     0038H     UNIT         ?PR?READRIGHT?ABSTASK
            CODE    4F81H     0038H     UNIT         ?PR?_GETPULSERCOUNT?TASK
            CODE    4FB9H     0035H     UNIT         ?PR?_UART1_INIT?SETUP
            CODE    4FEEH     0033H     UNIT         ?CO?TASK
            CODE    5021H     0031H     UNIT         ?PR?_SENDSCOPEDATA?DATASCOPE_DP
            CODE    5052H     002EH     UNIT         ?PR?SYSTEMTEST?ABSTASK
            CODE    5080H     002DH     UNIT         ?PR?PULSERINIT?FIXEDPULSER
            CODE    50ADH     002BH     UNIT         ?PR?RESETSYSTEM?ABSTASK
            CODE    50D8H     0028H     UNIT         ?PR?TURNLEFT?ABSTASK
            CODE    5100H     0028H     UNIT         ?PR?_OPEN_PWM_N?STC15_PWM
            CODE    5128H     0028H     UNIT         ?PR?_TX2_WRITE2BUFF?USART1
            CODE    5150H     0028H     UNIT         ?PR?_TX3_WRITE2BUFF?USART1
            CODE    5178H     0028H     UNIT         ?PR?_TX4_WRITE2BUFF?USART1
            CODE    51A0H     0027H     UNIT         ?PR?TURNRIGHT?ABSTASK
            CODE    51C7H     0027H     UNIT         ?PR?_TX1_WRITE2BUFF?USART1
            CODE    51EEH     0027H     UNIT         ?PR?PUTCHAR?PUTCHAR
            CODE    5215H     0026H     UNIT         ?PR?GOSTRAIGHT?ABSTASK
            CODE    523BH     0025H     UNIT         ?PR?SYSTEMSTATEUPDATE?ABSTASK
            CODE    5260H     0025H     UNIT         ?PR?_SETSTEPMOTORWITHPULSE?STEP_MOTOR
            CODE    5285H     0025H     UNIT         ?PR?_CLOSE_PWM_N?STC15_PWM
            CODE    52AAH     0025H     UNIT         ?PR?_SETTIMEOUT?TIMER
            CODE    52CFH     0022H     UNIT         ?PR?_BLINK?LED
            CODE    52F1H     0021H     UNIT         ?PR?BOARD_LED_INIT?LED
            CODE    5312H     0021H     UNIT         ?PR?LCD_CLR_SCR?LCD5510_V2
            CODE    5333H     0020H     UNIT         ?CO?SETUP
            CODE    5353H     0020H     UNIT         ?PR?_LCD_WRITE_BYTE?LCD5510_V2
            CODE    5373H     001FH     UNIT         ?PR?BUTTON_CONFIG?BUTTON
            CODE    5392H     001FH     UNIT         ?PR?_PWM_SET_PERIOD?STC15_PWM
            CODE    53B1H     001FH     UNIT         ?PR?_ISEXPIREDTIMER?TIMER
            CODE    53D0H     001FH     UNIT         ?PR?_ISSTOPPED?TIMER
            CODE    53EFH     001EH     UNIT         ?PR?LEFTSTEPMOTORSTATEUPDATE?ABSTASK
            CODE    540DH     001EH     UNIT         ?PR?RIGHTSTEPMOTORSTATEUPDATE?ABSTASK
            CODE    542BH     001EH     UNIT         ?PR?TRACKINGSYSTEM_INIT?DIRECTION
            CODE    5449H     001EH     UNIT         ?CO?LED
            CODE    5467H     001EH     UNIT         ?PR?_OPENPULSER?FIXEDPULSER
            CODE    5485H     001DH     UNIT         ?PR?_GETBUTTONSTATE?BUTTON
            CODE    54A2H     001DH     UNIT         ?PR?_CLOSE_STEPMOTOR?STEP_MOTOR
            CODE    54BFH     001DH     UNIT         ?PR?_CLOSEPULSER?FIXEDPULSER
            CODE    54DCH     001DH     UNIT         ?PR?_ISACTIVETIMER?TIMER
            CODE    54F9H     001CH     UNIT         ?PR?_SETCURRENTCOORDINATE?TASK
            CODE    5515H     001CH     UNIT         ?PR?_SETTARGETCOORDINATE?TASK
            CODE    5531H     001CH     UNIT         ?PR?_FREESTEPMOTOR?STEP_MOTOR
BL51 BANKED LINKER/LOCATER V6.00                                                      07/28/2017  21:19:49  PAGE 6


            CODE    554DH     001CH     UNIT         ?PR?_LOCKSTEPMOTOR?STEP_MOTOR
            CODE    5569H     001CH     UNIT         ?PR?_ADC_CONFIG?ANGLE
            CODE    5585H     001CH     UNIT         ?PR?_SETTIMERHERTZ?TIMER
            CODE    55A1H     001BH     UNIT         ?PR?_SETSTEPMOTORDIVERSION?STEP_MOTOR
            CODE    55BCH     001AH     UNIT         ?PR?_GET_PWM_PERIOD?STC15_PWM
            CODE    55D6H     001AH     UNIT         ?PR?_GET_PWM_N_DUTY?STC15_PWM
            CODE    55F0H     001AH     UNIT         ?PR?_GETTIMEROUT?TIMER
            CODE    560AH     001AH     UNIT         ?PR?_GETTIMERHERTZ?TIMER
            CODE    5624H     0017H     UNIT         ?PR?SETUP?SETUP
            CODE    563BH     0017H     UNIT         ?PR?_PRINTSTRING1?USART1
            CODE    5652H     0014H     UNIT         ?PR?_READGATE_ADC_VALUE?DIRECTION
            CODE    5666H     0014H     UNIT         ?RTX?TASKENT?S
            CODE    567AH     0014H     UNIT         ?PR?_LCD_POS_BYTE?LCD5510_V2
            CODE    568EH     0014H     UNIT         ?PR?_RESTARTTIMER?TIMER
            CODE    56A2H     0013H     UNIT         ?PR?WAITINGSYSTEM?ABSTASK
            CODE    56B5H     0013H     UNIT         ?PR?_OPEN_STEPMOTOR?STEP_MOTOR
            CODE    56C8H     0013H     UNIT         ?PR?_LCD_CLR_ROW?LCD5510_V2
            CODE    56DBH     0013H     UNIT         ?PR?_PRINTSTRING2?USART1
            CODE    56EEH     0013H     UNIT         ?PR?_PRINTSTRING3?USART1
            CODE    5701H     0013H     UNIT         ?PR?_PRINTSTRING4?USART1
            CODE    5714H     0012H     UNIT         ?PR?_WRITEDATA?STORAGE
            CODE    5726H     0012H     UNIT         ?PR?_GETPULSERSTATE?FIXEDPULSER
            CODE    5738H     0012H     UNIT         ?PR?_GET_PWM_N_STATE?STC15_PWM
            CODE    574AH     0011H     UNIT         ?PR?STOPSYSTEM?TASK
            CODE    575BH     0011H     UNIT         ?PR?_READGATE?DIRECTION
            CODE    576CH     0011H     UNIT         ?PR?_GETSTEPMOTORSTATE?STEP_MOTOR
            CODE    577DH     0011H     UNIT         ?PR?_SETPWM_DIV?STC15_PWM
            CODE    578EH     0011H     UNIT         ?PR?_GETPWM_DIV?STC15_PWM
            CODE    579FH     0010H     UNIT         ?PR?_DELAY_MS?DELAY
            CODE    57AFH     000FH     UNIT         ?PR?SYSTEMGATEADC_VALUEUPDATE?ABSTASK
            CODE    57BEH     000FH     UNIT         ?PR?SYSTEMGATESTATEUPDATE?ABSTASK
            CODE    57CDH     000FH     UNIT         ?PR?_SETSTEPMOTORSTATE?STEP_MOTOR
            CODE    57DCH     000EH     UNIT         ?PR?_STOPTIMER?TIMER
            CODE    57EAH     000EH     UNIT         ?PR?_ONRESTARTTIMER?TIMER
            CODE    57F8H     000DH     UNIT         ?PR?_FABS?FABS
            CODE    5805H     000CH     UNIT         ?PR?_ADC_POWERCONTROL?ADC
            CODE    5811H     000AH     UNIT         ?PR?_DIGITALREAD?BUTTON
            CODE    581BH     000AH     UNIT         ?PR?OPEN_PWM_ALL?STC15_PWM
            CODE    5825H     000AH     UNIT         ?PR?CLOSE_PWM_ALL?STC15_PWM
            CODE    582FH     0009H     UNIT         ?PR?GETMICROS?TIMER
            CODE    5838H     0009H     UNIT         ?PR?GETMILLIS?TIMER
            CODE    5841H     0007H     UNIT         ?PR?GETCURRENTCOORDINATE?TASK
            CODE    5848H     0006H     UNIT         ?PR?GETSYSTEMSTATE?TASK
            CODE    584EH     0006H     UNIT         ?PR?_SETSYSTEMSTATE?TASK
            CODE    5854H     0006H     UNIT         ?PR?_BOARD_LED_PWM?LED
            CODE    585AH     0006H     UNIT         ?PR?GETSECONDS?TIMER
            CODE    5860H     0006H     UNIT         ?PR?GETMINUTES?TIMER
            CODE    5866H     0006H     UNIT         ?PR?GETHOURS?TIMER
            CODE    586CH     0006H     UNIT         ?PR?GETDAYS?TIMER
            CODE    5872H     0005H     UNIT         ?PR?OPEN_BOARD_LED?LED
            CODE    5877H     0005H     UNIT         ?PR?CLOSE_BOARD_LED?LED
            CODE    587CH     0004H     UNIT         ?PR?ADC_INT?ADC
            CODE    5880H     0003H     UNIT         ?PR?GETBOARD_LED_STATE?LED
            CODE    5883H     0003H     UNIT         ?PR?_SETPINSTATE?GPIO
            CODE    5886H     0001H     UNIT         ?PR?TEST?SETUP
            CODE    5887H     0001H     UNIT         ?PR?MODE1?MODE
            CODE    5888H     0001H     UNIT         ?PR?MODE2?MODE
BL51 BANKED LINKER/LOCATER V6.00                                                      07/28/2017  21:19:49  PAGE 7


            CODE    5889H     0001H     UNIT         ?PR?MODE3?MODE
            CODE    588AH     0001H     UNIT         ?PR?MODE4?MODE
            CODE    588BH     0001H     UNIT         ?PR?MODELAUNCHER?MODE



OVERLAY MAP OF MODULE:   悬挂运动控制系统 (ABSTASK)


SEGMENT                                             BIT_GROUP          DATA_GROUP          XDATA_GROUP
  +--> CALLED SEGMENT                            START    LENGTH     START    LENGTH     START    LENGTH
--------------------------------------------------------------------------------------------------------
?PR?TASKSTART?ABSTASK                            -----    -----      -----    -----      -----    -----
  +--> ?PR?SETUP?SETUP
  +--> ?PR?_BLINK?LED
  +--> ?PR?_SETCURRENTCOORDINATE?TASK

?PR?SETUP?SETUP                                  -----    -----      -----    -----      -----    -----
  +--> ?PR?_UART1_INIT?SETUP
  +--> ?PR?TIMERINIT?TIMER
  +--> ?PR?BOARD_LED_INIT?LED
  +--> ?PR?MOTIONSYSTEM_INIT?TASK
  +--> ?PR?TRACKINGSYSTEM_INIT?DIRECTION

?PR?_UART1_INIT?SETUP                            -----    -----      -----    -----      028CH    000DH
  +--> ?PR?_USART_CONFIGURATION?USART1
  +--> ?CO?SETUP
  +--> ?PR?_PRINTSTRING1?USART1

?PR?_USART_CONFIGURATION?USART1                  -----    -----      -----    -----      0299H    0009H

?PR?_PRINTSTRING1?USART1                         -----    -----      -----    -----      -----    -----
  +--> ?PR?_TX1_WRITE2BUFF?USART1

?PR?TIMERINIT?TIMER                              -----    -----      -----    -----      028CH    0019H
  +--> ?PR?_TIMER_INILIZE?TIMER

?PR?BOARD_LED_INIT?LED                           -----    -----      -----    -----      028CH    0002H
  +--> ?PR?_GPIO_INILIZE?GPIO
  +--> ?CO?LED
  +--> ?PR?_PRINTSTRING1?USART1

?PR?MOTIONSYSTEM_INIT?TASK                       -----    -----      -----    -----      -----    -----
  +--> ?PR?_STEPMOTOR_INIT?STEP_MOTOR

?PR?_STEPMOTOR_INIT?STEP_MOTOR                   -----    -----      -----    -----      028CH    000EH
  +--> ?PR?_GPIO_INILIZE?GPIO
  +--> ?PR?PULSERINIT?FIXEDPULSER

?PR?PULSERINIT?FIXEDPULSER                       -----    -----      -----    -----      029AH    0002H
  +--> ?PR?_GPIO_INILIZE?GPIO

?PR?TRACKINGSYSTEM_INIT?DIRECTION                -----    -----      -----    -----      028CH    0006H
  +--> ?PR?_ADC_INILIZE?ADC

?PR?_BLINK?LED                                   -----    -----      -----    -----      028CH    0001H
  +--> ?PR?OPEN_BOARD_LED?LED
BL51 BANKED LINKER/LOCATER V6.00                                                      07/28/2017  21:19:49  PAGE 8


  +--> ?PR?_DELAY_MS?DELAY
  +--> ?PR?CLOSE_BOARD_LED?LED

?PR?_SETCURRENTCOORDINATE?TASK                   -----    -----      -----    -----      028CH    0008H

*** NEW ROOT ***************************************************

?PR?TRACKING?ABSTASK                             -----    -----      -----    -----      -----    -----
  +--> ?PR?_READGATE?DIRECTION
  +--> ?PR?_SYSTEMLEFT?ABSTASK
  +--> ?CO?ABSTASK
  +--> ?PR?_SYSTEMDOWN?ABSTASK
  +--> ?PR?_SYSTEMUP?ABSTASK
  +--> ?PR?_SYSTEMRIGHT?ABSTASK
  +--> ?PR?_PRINTSTRING1?USART1

?PR?_SYSTEMLEFT?ABSTASK                          -----    -----      -----    -----      0339H    0004H
  +--> ?PR?GETCURRENTCOORDINATE?TASK
  +--> ?PR?_SETTARGETCOORDINATE?TASK
  +--> ?PR?WAITINGSYSTEM?ABSTASK
  +--> ?PR?STARTSYSTEM?TASK

?PR?_SETTARGETCOORDINATE?TASK                    -----    -----      -----    -----      033DH    0008H

?PR?WAITINGSYSTEM?ABSTASK                        -----    -----      -----    -----      -----    -----
  +--> ?PR?GETSYSTEMSTATE?TASK

?PR?STARTSYSTEM?TASK                             -----    -----      -----    -----      -----    -----
  +--> ?PR?SETSTEPMOTORDIS?TASK
  +--> ?PR?_OPEN_STEPMOTOR?STEP_MOTOR

?PR?SETSTEPMOTORDIS?TASK                         -----    -----      -----    -----      033DH    0060H
  +--> ?PR?_GETWIRELENGTH?TASK
  +--> ?PR?_FABS?FABS
  +--> ?CO?TASK
  +--> ?PR?PRINTF?PRINTF
  +--> ?PR?_SETSTEPMOTORDIVERSION?STEP_MOTOR
  +--> ?PR?_GETPULSERCOUNT?TASK
  +--> ?PR?_TWOPOINTDISTANCE?TASK
  +--> ?PR?_SETSTEPMOTORWITHPULSE?STEP_MOTOR

?PR?_GETWIRELENGTH?TASK                          -----    -----      -----    -----      039DH    000DH
  +--> ?PR?_POW?POW
  +--> ?PR?SQRT?SQRT

?PR?_POW?POW                                     -----    -----      -----    -----      03AAH    000AH
  +--> ?PR?LOG?LOG
  +--> ?PR?EXP?EXP

?PR?LOG?LOG                                      0021H.1  0000H.1    -----    -----      03B4H    0004H

?PR?SQRT?SQRT                                    -----    -----      -----    -----      03ADH    0004H

?PR?PRINTF?PRINTF                                0021H.1  0001H.1    0012H    0005H      039DH    0030H
  +--> ?PR?PUTCHAR?PUTCHAR

?PR?_SETSTEPMOTORDIVERSION?STEP_MOTOR            0021H.1  0000H.1    -----    -----      -----    -----
BL51 BANKED LINKER/LOCATER V6.00                                                      07/28/2017  21:19:49  PAGE 9



?PR?_GETPULSERCOUNT?TASK                         -----    -----      -----    -----      039DH    0004H

?PR?_TWOPOINTDISTANCE?TASK                       -----    -----      -----    -----      039DH    0010H
  +--> ?PR?SQRT?SQRT

?PR?_SETSTEPMOTORWITHPULSE?STEP_MOTOR            -----    -----      -----    -----      039DH    0007H
  +--> ?PR?_SETPULSE?FIXEDPULSER

?PR?_SETPULSE?FIXEDPULSER                        -----    -----      -----    -----      03A4H    000BH

?PR?_OPEN_STEPMOTOR?STEP_MOTOR                   -----    -----      -----    -----      -----    -----
  +--> ?PR?_OPENPULSER?FIXEDPULSER

?PR?_SYSTEMDOWN?ABSTASK                          -----    -----      -----    -----      0339H    0004H
  +--> ?PR?GETCURRENTCOORDINATE?TASK
  +--> ?PR?_SETTARGETCOORDINATE?TASK
  +--> ?PR?WAITINGSYSTEM?ABSTASK
  +--> ?PR?STARTSYSTEM?TASK

?PR?_SYSTEMUP?ABSTASK                            -----    -----      -----    -----      0339H    0004H
  +--> ?PR?GETCURRENTCOORDINATE?TASK
  +--> ?PR?_SETTARGETCOORDINATE?TASK
  +--> ?PR?WAITINGSYSTEM?ABSTASK
  +--> ?PR?STARTSYSTEM?TASK

?PR?_SYSTEMRIGHT?ABSTASK                         -----    -----      -----    -----      0339H    0004H
  +--> ?PR?GETCURRENTCOORDINATE?TASK
  +--> ?PR?_SETTARGETCOORDINATE?TASK
  +--> ?PR?WAITINGSYSTEM?ABSTASK
  +--> ?PR?STARTSYSTEM?TASK

*** NEW ROOT ***************************************************

?PR?SYSTEMTEST?ABSTASK                           -----    -----      -----    -----      -----    -----
  +--> ?PR?_SYSTEMUP?ABSTASK
  +--> ?PR?_SYSTEMRIGHT?ABSTASK
  +--> ?PR?_SYSTEMDOWN?ABSTASK
  +--> ?PR?_SYSTEMLEFT?ABSTASK

*** NEW ROOT ***************************************************

?PR?PRINTGATESTATE?ABSTASK                       -----    -----      -----    -----      -----    -----
  +--> ?PR?_READGATE?DIRECTION
  +--> ?CO?ABSTASK
  +--> ?PR?_PRINTSTRING1?USART1

*** NEW ROOT ***************************************************

?PR?PRINTADCVALUE?ABSTASK                        -----    -----      -----    -----      -----    -----
  +--> ?PR?_READGATE_ADC_VALUE?DIRECTION
  +--> ?PR?_DATASCOPE_GET_CHANNEL_DATA?DATAS...
  +--> ?PR?_SENDSCOPEDATA?DATASCOPE_DP

?PR?_DATASCOPE_GET_CHANNEL_DATA?DATAS...         -----    -----      -----    -----      03CDH    0005H
  +--> ?PR?_FLOAT2BYTE?DATASCOPE_DP

BL51 BANKED LINKER/LOCATER V6.00                                                      07/28/2017  21:19:49  PAGE 10


?PR?_FLOAT2BYTE?DATASCOPE_DP                     -----    -----      -----    -----      03D2H    000AH

?PR?_SENDSCOPEDATA?DATASCOPE_DP                  -----    -----      -----    -----      03CDH    0002H
  +--> ?PR?_DATASCOPE_DATA_GENERATE?DATASCOP...
  +--> ?PR?_TX1_WRITE2BUFF?USART1

*** NEW ROOT ***************************************************

?PR?SYSTEMGATEADC_VALUEUPDATE?ABSTASK            -----    -----      -----    -----      -----    -----
  +--> ?PR?GATEADC_VALUEUPDATE?DIRECTION

?PR?GATEADC_VALUEUPDATE?DIRECTION                -----    -----      -----    -----      03DCH    0016H
  +--> ?PR?_GET_ADC10BITRESULT?ADC
  +--> ?PR?_FILTER?FILTER

?PR?_FILTER?FILTER                               -----    -----      -----    -----      03F2H    0010H

*** NEW ROOT ***************************************************

?PR?SYSTEMGATESTATEUPDATE?ABSTASK                -----    -----      -----    -----      -----    -----
  +--> ?PR?GATESTATEUPDATE?DIRECTION

?PR?GATESTATEUPDATE?DIRECTION                    -----    -----      -----    -----      -----    -----
  +--> ?PR?_READGATE_ADC_VALUE?DIRECTION

*** NEW ROOT ***************************************************

?PR?LEFTSTEPMOTORSTATEUPDATE?ABSTASK             -----    -----      -----    -----      -----    -----
  +--> ?PR?_GETPULSERSTATE?FIXEDPULSER
  +--> ?PR?_SETSTEPMOTORSTATE?STEP_MOTOR

*** NEW ROOT ***************************************************

?PR?RIGHTSTEPMOTORSTATEUPDATE?ABSTASK            -----    -----      -----    -----      -----    -----
  +--> ?PR?_GETPULSERSTATE?FIXEDPULSER
  +--> ?PR?_SETSTEPMOTORSTATE?STEP_MOTOR

*** NEW ROOT ***************************************************

?PR?SYSTEMSTATEUPDATE?ABSTASK                    -----    -----      -----    -----      -----    -----
  +--> ?PR?_GETSTEPMOTORSTATE?STEP_MOTOR
  +--> ?PR?_SETSYSTEMSTATE?TASK

*** NEW ROOT ***************************************************

?PR?PULSER_1INT?FIXEDPULSER                      -----    -----      -----    -----      -----    -----
  +--> ?PR?_CLOSEPULSER?FIXEDPULSER

*** NEW ROOT ***************************************************

?PR?PULSER_2INT?FIXEDPULSER                      -----    -----      -----    -----      -----    -----
  +--> ?PR?_CLOSEPULSER?FIXEDPULSER

*** NEW ROOT ***************************************************

?C_C51STARTUP                                    -----    -----      -----    -----      -----    -----
  +--> ?C_INITSEG
BL51 BANKED LINKER/LOCATER V6.00                                                      07/28/2017  21:19:49  PAGE 11





SYMBOL TABLE OF MODULE:  悬挂运动控制系统 (ABSTASK)

  VALUE           TYPE          NAME
  ----------------------------------

  -------         MODULE        ABSTASK
  C:0000H         SYMBOL        _ICE_DUMMY_
  D:0080H         PUBLIC        P0
  D:0090H         PUBLIC        P1
  C:56A2H         PUBLIC        waitingSystem
  D:00A0H         PUBLIC        P2
  D:00B0H         PUBLIC        P3
  D:00C0H         PUBLIC        P4
  D:00C8H         PUBLIC        P5
  D:00E8H         PUBLIC        P6
  C:2BDAH         PUBLIC        _drawCircle
  D:00F8H         PUBLIC        P7
  D:00A8H         PUBLIC        IE
  C:4B1FH         PUBLIC        drawLoopSrtLine
  C:523BH         PUBLIC        systemStateUpdate
  D:00B8H         PUBLIC        IP
  C:57BEH         PUBLIC        systemGateStateUpdate
  X:040AH         SYMBOL        g_StepMotorCurrentWireLen
  C:4F49H         PUBLIC        readRight
  X:0412H         SYMBOL        g_StepMotorTargetWireLen
  C:5215H         PUBLIC        goStraight
  D:00D8H         PUBLIC        CCON
  C:4814H         PUBLIC        _systemRight
  C:4F11H         PUBLIC        readLeft
  C:50ADH         PUBLIC        resetSystem
  D:0098H         PUBLIC        SCON
  D:0088H         PUBLIC        TCON
  C:47AAH         PUBLIC        _systemLeft
  C:385EH         PUBLIC        Tracking
  C:48DFH         PUBLIC        printGateState
  C:3C44H         PUBLIC        drawLine
  X:041AH         PUBLIC        lastTimeHead
  C:57AFH         PUBLIC        systemGateADC_ValueUpdate
  X:041BH         SYMBOL        g_CurrentCoordinate
  D:00F0H         PUBLIC        B
  C:540DH         PUBLIC        rightStepMotorStateUpdate
  X:0423H         SYMBOL        g_TargetCoordinate
  C:4ACDH         PUBLIC        _systemDown
  C:4C74H         PUBLIC        taskStart
  X:042BH         PUBLIC        initialX
  D:00E0H         PUBLIC        ACC
  X:042FH         PUBLIC        initialY
  C:5052H         PUBLIC        systemTest
  C:51A0H         PUBLIC        turnRight
  C:53EFH         PUBLIC        leftStepMotorStateUpdate
  C:50D8H         PUBLIC        turnLeft
  X:0433H         PUBLIC        str
  X:044DH         SYMBOL        g_MotionSystemInfo
  X:0466H         PUBLIC        currentCodnat
BL51 BANKED LINKER/LOCATER V6.00                                                      07/28/2017  21:19:49  PAGE 12


  C:4ED9H         PUBLIC        drawLoopRectangle
  C:4A73H         PUBLIC        _systemUp
  C:4876H         PUBLIC        printADCValue
  D:00D0H         PUBLIC        PSW
  X:046EH         PUBLIC        currentHead
  -------         PROC          TASKSTART
  C:4C74H         LINE#         39
  C:4C74H         LINE#         41
  C:4C77H         LINE#         42
  C:4C7CH         LINE#         43
  C:4CA1H         LINE#         45
  C:4CA6H         LINE#         46
  C:4CABH         LINE#         47
  C:4CB0H         LINE#         48
  C:4CB5H         LINE#         49
  C:4CBAH         LINE#         51
  C:4CBFH         LINE#         52
  -------         ENDPROC       TASKSTART
  -------         PROC          WAITINGSYSTEM
  -------         DO            
  C:56A2H         SYMBOL        wait
  -------         ENDDO         
  C:56A2H         LINE#         56
  C:56A2H         LINE#         57
  C:56A2H         LINE#         58
  C:56A2H         LINE#         59
  C:56A8H         LINE#         60
  C:56A8H         LINE#         61
  C:56B2H         LINE#         62
  C:56B4H         LINE#         63
  C:56B4H         LINE#         64
  -------         ENDPROC       WAITINGSYSTEM
  -------         PROC          RESETSYSTEM
  C:50ADH         LINE#         66
  C:50ADH         LINE#         67
  C:50ADH         LINE#         68
  C:50D2H         LINE#         69
  C:50D5H         LINE#         70
  -------         ENDPROC       RESETSYSTEM
  C:4A6BH         SYMBOL        L?0156
  -------         PROC          L?0155
  -------         ENDPROC       L?0155
  C:4A6BH         SYMBOL        L?0156
  -------         PROC          _SYSTEMUP
  X:0339H         SYMBOL        dis
  C:4A73H         LINE#         75
  C:4A79H         LINE#         76
  C:4A79H         LINE#         77
  C:4A89H         LINE#         78
  C:4ABFH         LINE#         79
  C:4AC2H         LINE#         80
  -------         ENDPROC       _SYSTEMUP
  C:4AC5H         SYMBOL        L?0158
  -------         PROC          L?0157
  -------         ENDPROC       L?0157
  C:4AC5H         SYMBOL        L?0158
  -------         PROC          _SYSTEMDOWN
BL51 BANKED LINKER/LOCATER V6.00                                                      07/28/2017  21:19:49  PAGE 13


  X:0339H         SYMBOL        dis
  C:4ACDH         LINE#         83
  C:4AD3H         LINE#         84
  C:4AD3H         LINE#         85
  C:4AE3H         LINE#         86
  C:4B19H         LINE#         87
  C:4B1CH         LINE#         88
  -------         ENDPROC       _SYSTEMDOWN
  C:47A2H         SYMBOL        L?0160
  -------         PROC          L?0159
  -------         ENDPROC       L?0159
  C:47A2H         SYMBOL        L?0160
  -------         PROC          _SYSTEMLEFT
  X:0339H         SYMBOL        dis
  C:47AAH         LINE#         91
  C:47B0H         LINE#         92
  C:47B0H         LINE#         93
  C:47C0H         LINE#         94
  C:4806H         LINE#         95
  C:4809H         LINE#         96
  -------         ENDPROC       _SYSTEMLEFT
  C:480CH         SYMBOL        L?0162
  -------         PROC          L?0161
  -------         ENDPROC       L?0161
  C:480CH         SYMBOL        L?0162
  -------         PROC          _SYSTEMRIGHT
  X:0339H         SYMBOL        dis
  C:4814H         LINE#         99
  C:481AH         LINE#         100
  C:481AH         LINE#         101
  C:482AH         LINE#         102
  C:4870H         LINE#         103
  C:4873H         LINE#         104
  -------         ENDPROC       _SYSTEMRIGHT
  -------         PROC          DRAWLOOPSRTLINE
  -------         DO            
  X:0639H         SYMBOL        i
  -------         ENDDO         
  C:4B1FH         LINE#         108
  C:4B1FH         LINE#         109
  C:4B1FH         LINE#         110
  C:4B26H         LINE#         111
  C:4B26H         LINE#         112
  C:4B26H         LINE#         113
  C:4B2DH         LINE#         114
  C:4B2DH         LINE#         115
  C:4B30H         LINE#         116
  C:4B4DH         LINE#         117
  C:4B63H         LINE#         118
  C:4B63H         LINE#         119
  C:4B66H         LINE#         120
  -------         ENDPROC       DRAWLOOPSRTLINE
  -------         PROC          DRAWLOOPRECTANGLE
  -------         DO            
  X:0647H         SYMBOL        length
  -------         ENDDO         
  C:4ED9H         LINE#         124
BL51 BANKED LINKER/LOCATER V6.00                                                      07/28/2017  21:19:49  PAGE 14


  C:4ED9H         LINE#         125
  C:4ED9H         LINE#         126
  C:4EDFH         LINE#         127
  C:4EDFH         LINE#         128
  C:4EDFH         LINE#         129
  C:4EEBH         LINE#         130
  C:4EF7H         LINE#         131
  C:4F03H         LINE#         132
  C:4F0FH         LINE#         133
  -------         ENDPROC       DRAWLOOPRECTANGLE
  -------         PROC          DRAWLINE
  -------         DO            
  X:0402H         SYMBOL        x
  X:0406H         SYMBOL        y
  X:063BH         SYMBOL        tmp
  -------         ENDDO         
  C:3C44H         LINE#         136
  C:3C44H         LINE#         137
  C:3C44H         LINE#         139
  C:3C4BH         LINE#         140
  C:3C51H         LINE#         141
  C:3C51H         LINE#         142
  C:3C90H         LINE#         143
  C:3C99H         LINE#         144
  C:3CB7H         LINE#         145
  C:3CD4H         LINE#         147
  C:3CF9H         LINE#         148
  C:3CFCH         LINE#         149
  C:3CFFH         LINE#         152
  C:3D21H         LINE#         154
  -------         ENDPROC       DRAWLINE
  -------         PROC          READLEFT
  C:4F11H         LINE#         159
  C:4F11H         LINE#         160
  C:4F11H         LINE#         161
  C:4F21H         LINE#         162
  C:4F21H         LINE#         163
  C:4F21H         LINE#         164
  C:4F21H         LINE#         165
  C:4F29H         LINE#         166
  C:4F29H         LINE#         167
  C:4F2BH         LINE#         168
  C:4F2BH         LINE#         169
  C:4F2BH         LINE#         170
  C:4F2BH         LINE#         171
  C:4F2BH         LINE#         172
  C:4F2BH         LINE#         173
  C:4F33H         LINE#         174
  C:4F33H         LINE#         175
  C:4F35H         LINE#         176
  C:4F35H         LINE#         177
  C:4F35H         LINE#         178
  C:4F35H         LINE#         179
  C:4F35H         LINE#         180
  C:4F35H         LINE#         181
  C:4F3DH         LINE#         182
  C:4F3DH         LINE#         183
BL51 BANKED LINKER/LOCATER V6.00                                                      07/28/2017  21:19:49  PAGE 15


  C:4F3FH         LINE#         184
  C:4F3FH         LINE#         185
  C:4F3FH         LINE#         186
  C:4F3FH         LINE#         187
  C:4F3FH         LINE#         188
  C:4F3FH         LINE#         189
  C:4F47H         LINE#         190
  C:4F47H         LINE#         191
  C:4F48H         LINE#         192
  C:4F48H         LINE#         193
  C:4F48H         LINE#         194
  C:4F48H         LINE#         195
  C:4F48H         LINE#         196
  C:4F48H         LINE#         198
  C:4F48H         LINE#         199
  -------         ENDPROC       READLEFT
  -------         PROC          TURNLEFT
  C:50D8H         LINE#         201
  C:50D8H         LINE#         202
  C:50D8H         LINE#         203
  C:50E6H         LINE#         204
  C:50E6H         LINE#         205
  C:50E6H         LINE#         206
  C:50E6H         LINE#         207
  C:50F1H         LINE#         208
  C:50F1H         LINE#         209
  C:50F1H         LINE#         210
  C:50F1H         LINE#         211
  C:50F1H         LINE#         212
  C:50FCH         LINE#         213
  C:50FCH         LINE#         214
  C:50FCH         LINE#         215
  C:50FCH         LINE#         216
  C:50FCH         LINE#         217
  C:50FFH         LINE#         218
  C:50FFH         LINE#         219
  C:50FFH         LINE#         220
  C:50FFH         LINE#         221
  C:50FFH         LINE#         223
  C:50FFH         LINE#         224
  C:50FFH         LINE#         225
  C:50FFH         LINE#         226
  C:50FFH         LINE#         228
  C:50FFH         LINE#         229
  -------         ENDPROC       TURNLEFT
  -------         PROC          READRIGHT
  C:4F49H         LINE#         231
  C:4F49H         LINE#         232
  C:4F49H         LINE#         233
  C:4F59H         LINE#         234
  C:4F59H         LINE#         235
  C:4F59H         LINE#         236
  C:4F59H         LINE#         237
  C:4F61H         LINE#         238
  C:4F61H         LINE#         239
  C:4F63H         LINE#         240
  C:4F63H         LINE#         241
BL51 BANKED LINKER/LOCATER V6.00                                                      07/28/2017  21:19:49  PAGE 16


  C:4F63H         LINE#         242
  C:4F63H         LINE#         243
  C:4F63H         LINE#         244
  C:4F63H         LINE#         245
  C:4F6BH         LINE#         246
  C:4F6BH         LINE#         247
  C:4F6DH         LINE#         248
  C:4F6DH         LINE#         249
  C:4F6DH         LINE#         250
  C:4F6DH         LINE#         251
  C:4F6DH         LINE#         252
  C:4F6DH         LINE#         253
  C:4F75H         LINE#         254
  C:4F75H         LINE#         255
  C:4F77H         LINE#         256
  C:4F77H         LINE#         257
  C:4F77H         LINE#         258
  C:4F77H         LINE#         259
  C:4F77H         LINE#         260
  C:4F77H         LINE#         261
  C:4F7FH         LINE#         262
  C:4F7FH         LINE#         263
  C:4F80H         LINE#         264
  C:4F80H         LINE#         265
  C:4F80H         LINE#         266
  C:4F80H         LINE#         267
  C:4F80H         LINE#         268
  C:4F80H         LINE#         270
  C:4F80H         LINE#         271
  -------         ENDPROC       READRIGHT
  -------         PROC          TURNRIGHT
  C:51A0H         LINE#         273
  C:51A0H         LINE#         274
  C:51A0H         LINE#         275
  C:51ADH         LINE#         276
  C:51ADH         LINE#         277
  C:51ADH         LINE#         278
  C:51ADH         LINE#         279
  C:51B8H         LINE#         280
  C:51B8H         LINE#         281
  C:51B8H         LINE#         282
  C:51B8H         LINE#         283
  C:51B8H         LINE#         284
  C:51C3H         LINE#         285
  C:51C3H         LINE#         286
  C:51C3H         LINE#         287
  C:51C3H         LINE#         288
  C:51C3H         LINE#         290
  C:51C3H         LINE#         291
  C:51C3H         LINE#         292
  C:51C3H         LINE#         293
  C:51C3H         LINE#         294
  C:51C6H         LINE#         295
  C:51C6H         LINE#         296
  C:51C6H         LINE#         297
  C:51C6H         LINE#         298
  C:51C6H         LINE#         300
BL51 BANKED LINKER/LOCATER V6.00                                                      07/28/2017  21:19:49  PAGE 17


  C:51C6H         LINE#         301
  -------         ENDPROC       TURNRIGHT
  -------         PROC          GOSTRAIGHT
  C:5215H         LINE#         303
  C:5215H         LINE#         304
  C:5215H         LINE#         305
  C:5221H         LINE#         306
  C:5221H         LINE#         307
  C:5221H         LINE#         308
  C:5221H         LINE#         309
  C:522CH         LINE#         310
  C:522CH         LINE#         311
  C:522CH         LINE#         312
  C:522CH         LINE#         313
  C:522CH         LINE#         315
  C:522CH         LINE#         316
  C:522CH         LINE#         317
  C:522CH         LINE#         318
  C:522CH         LINE#         319
  C:5237H         LINE#         320
  C:5237H         LINE#         321
  C:5237H         LINE#         322
  C:5237H         LINE#         323
  C:5237H         LINE#         324
  C:523AH         LINE#         325
  C:523AH         LINE#         326
  C:523AH         LINE#         327
  C:523AH         LINE#         328
  C:523AH         LINE#         330
  C:523AH         LINE#         332
  -------         ENDPROC       GOSTRAIGHT
  -------         PROC          _DRAWCIRCLE
  X:05A8H         SYMBOL        x
  X:05ACH         SYMBOL        y
  -------         DO            
  X:05B0H         SYMBOL        tmp
  X:05B2H         SYMBOL        X
  X:05B6H         SYMBOL        Y
  X:05BAH         SYMBOL        subdivide
  X:05BEH         SYMBOL        angle
  -------         ENDDO         
  C:2BDAH         LINE#         334
  C:2BE0H         LINE#         335
  C:2BE0H         LINE#         336
  C:2BE7H         LINE#         337
  C:2BFBH         LINE#         338
  C:2C0FH         LINE#         339
  C:2C19H         LINE#         340
  C:2C23H         LINE#         343
  C:2C4CH         LINE#         344
  C:2C4CH         LINE#         345
  C:2C9AH         LINE#         346
  C:2CA3H         LINE#         348
  C:2CEAH         LINE#         349
  C:2D27H         LINE#         350
  C:2D64H         LINE#         351
  C:2D89H         LINE#         352
BL51 BANKED LINKER/LOCATER V6.00                                                      07/28/2017  21:19:49  PAGE 18


  C:2D8CH         LINE#         353
  C:2D8FH         LINE#         356
  C:2DA3H         LINE#         357
  -------         ENDPROC       _DRAWCIRCLE
  -------         PROC          TRACKING
  C:385EH         LINE#         362
  C:385EH         LINE#         364
  C:385EH         LINE#         366
  C:385EH         LINE#         367
  C:3866H         LINE#         368
  C:3866H         LINE#         369
  C:3866H         LINE#         371
  C:3866H         LINE#         375
  C:3869H         LINE#         376
  C:3871H         LINE#         377
  C:3871H         LINE#         378
  C:3874H         LINE#         380
  C:387AH         LINE#         383
  C:387DH         LINE#         384
  C:3885H         LINE#         385
  C:3885H         LINE#         386
  C:3888H         LINE#         388
  C:388EH         LINE#         391
  C:3891H         LINE#         392
  C:3899H         LINE#         393
  C:3899H         LINE#         394
  C:389CH         LINE#         396
  C:38A2H         LINE#         399
  C:38A5H         LINE#         400
  C:38B5H         LINE#         401
  C:38B5H         LINE#         402
  C:38B8H         LINE#         404
  C:38BEH         LINE#         407
  C:38C1H         LINE#         408
  C:38D1H         LINE#         409
  C:38D1H         LINE#         410
  C:38D4H         LINE#         412
  C:38DAH         LINE#         415
  C:38DDH         LINE#         416
  C:38EDH         LINE#         417
  C:38EDH         LINE#         418
  C:38F0H         LINE#         419
  C:38F3H         LINE#         421
  C:38F9H         LINE#         424
  C:38FCH         LINE#         425
  C:390CH         LINE#         426
  C:390CH         LINE#         427
  C:390FH         LINE#         428
  C:3912H         LINE#         430
  C:3918H         LINE#         433
  C:391AH         LINE#         434
  C:392AH         LINE#         435
  C:392AH         LINE#         436
  C:392DH         LINE#         437
  C:3930H         LINE#         439
  C:3936H         LINE#         442
  C:3938H         LINE#         443
BL51 BANKED LINKER/LOCATER V6.00                                                      07/28/2017  21:19:49  PAGE 19


  C:3948H         LINE#         444
  C:3948H         LINE#         445
  C:394BH         LINE#         446
  C:394EH         LINE#         448
  C:3957H         LINE#         451
  C:3959H         LINE#         453
  C:3959H         LINE#         454
  C:395CH         LINE#         455
  C:395CH         LINE#         456
  C:3966H         LINE#         457
  -------         ENDPROC       TRACKING
  -------         PROC          SYSTEMTEST
  C:5052H         LINE#         532
  C:5052H         LINE#         534
  C:5052H         LINE#         535
  C:5052H         LINE#         537
  C:505DH         LINE#         538
  C:5068H         LINE#         539
  C:5073H         LINE#         540
  C:507EH         LINE#         543
  -------         ENDPROC       SYSTEMTEST
  -------         PROC          PRINTGATESTATE
  C:48DFH         LINE#         546
  C:48DFH         LINE#         548
  C:48DFH         LINE#         549
  C:48DFH         LINE#         550
  C:48E9H         LINE#         551
  C:48E9H         LINE#         552
  C:48EDH         LINE#         553
  C:48EFH         LINE#         555
  C:48EFH         LINE#         556
  C:48F6H         LINE#         557
  C:48F6H         LINE#         558
  C:4900H         LINE#         559
  C:4900H         LINE#         560
  C:4904H         LINE#         561
  C:4906H         LINE#         563
  C:4906H         LINE#         564
  C:490DH         LINE#         565
  C:490DH         LINE#         566
  C:4917H         LINE#         567
  C:4917H         LINE#         568
  C:491BH         LINE#         569
  C:491DH         LINE#         571
  C:491DH         LINE#         572
  C:4924H         LINE#         573
  C:4924H         LINE#         575
  C:492EH         LINE#         576
  C:492EH         LINE#         577
  C:4932H         LINE#         578
  C:4934H         LINE#         580
  C:4934H         LINE#         581
  C:493BH         LINE#         582
  C:493BH         LINE#         583
  C:4945H         LINE#         585
  -------         ENDPROC       PRINTGATESTATE
  -------         PROC          PRINTADCVALUE
BL51 BANKED LINKER/LOCATER V6.00                                                      07/28/2017  21:19:49  PAGE 20


  C:4876H         LINE#         588
  C:4876H         LINE#         590
  C:4876H         LINE#         591
  C:4876H         LINE#         592
  C:488CH         LINE#         593
  C:48A2H         LINE#         594
  C:48B8H         LINE#         595
  C:48CEH         LINE#         596
  C:48D3H         LINE#         599
  C:48DDH         LINE#         600
  -------         ENDPROC       PRINTADCVALUE
  -------         PROC          SYSTEMGATEADC_VALUEUPDATE
  C:57AFH         LINE#         602
  C:57AFH         LINE#         604
  C:57AFH         LINE#         605
  C:57AFH         LINE#         606
  C:57B2H         LINE#         607
  C:57BCH         LINE#         608
  -------         ENDPROC       SYSTEMGATEADC_VALUEUPDATE
  -------         PROC          SYSTEMGATESTATEUPDATE
  C:57BEH         LINE#         610
  C:57BEH         LINE#         612
  C:57BEH         LINE#         613
  C:57BEH         LINE#         614
  C:57C1H         LINE#         615
  C:57CBH         LINE#         616
  -------         ENDPROC       SYSTEMGATESTATEUPDATE
  -------         PROC          LEFTSTEPMOTORSTATEUPDATE
  C:53EFH         LINE#         618
  C:53EFH         LINE#         620
  C:53EFH         LINE#         621
  C:53EFH         LINE#         622
  C:53F6H         LINE#         623
  C:53F6H         LINE#         624
  C:53F8H         LINE#         627
  C:53FAH         LINE#         629
  C:53FAH         LINE#         630
  C:5401H         LINE#         633
  C:5401H         LINE#         634
  C:540BH         LINE#         635
  -------         ENDPROC       LEFTSTEPMOTORSTATEUPDATE
  -------         PROC          RIGHTSTEPMOTORSTATEUPDATE
  C:540DH         LINE#         637
  C:540DH         LINE#         639
  C:540DH         LINE#         640
  C:540DH         LINE#         641
  C:5414H         LINE#         642
  C:5414H         LINE#         643
  C:5416H         LINE#         645
  C:5418H         LINE#         647
  C:5418H         LINE#         648
  C:541FH         LINE#         650
  C:541FH         LINE#         651
  C:5429H         LINE#         652
  -------         ENDPROC       RIGHTSTEPMOTORSTATEUPDATE
  -------         PROC          SYSTEMSTATEUPDATE
  C:523BH         LINE#         654
BL51 BANKED LINKER/LOCATER V6.00                                                      07/28/2017  21:19:49  PAGE 21


  C:523BH         LINE#         656
  C:523BH         LINE#         657
  C:523BH         LINE#         658
  C:524BH         LINE#         659
  C:524BH         LINE#         660
  C:524DH         LINE#         662
  C:524FH         LINE#         664
  C:524FH         LINE#         666
  C:5254H         LINE#         668
  C:5254H         LINE#         669
  C:525EH         LINE#         671
  -------         ENDPROC       SYSTEMSTATEUPDATE
  -------         ENDMOD        ABSTASK

  -------         MODULE        TASK
  C:0000H         SYMBOL        _ICE_DUMMY_
  D:0080H         PUBLIC        P0
  D:0090H         PUBLIC        P1
  D:00A0H         PUBLIC        P2
  D:00B0H         PUBLIC        P3
  D:00C0H         PUBLIC        P4
  D:00C8H         PUBLIC        P5
  D:00E8H         PUBLIC        P6
  D:00F8H         PUBLIC        P7
  D:00A8H         PUBLIC        IE
  D:00B8H         PUBLIC        IP
  C:3DEBH         SYMBOL        _twoPointDistance
  X:04F0H         SYMBOL        g_StepMotorCurrentWireLen
  X:04F8H         SYMBOL        g_StepMotorTargetWireLen
  C:216AH         SYMBOL        setStepMotorDis
  D:00D8H         PUBLIC        CCON
  D:0098H         PUBLIC        SCON
  D:0088H         PUBLIC        TCON
  C:5841H         PUBLIC        getCurrentCoordinate
  C:4DEBH         PUBLIC        startSystem
  X:0500H         SYMBOL        g_CurrentCoordinate
  D:00F0H         PUBLIC        B
  C:397CH         SYMBOL        _getWireLength
  X:0508H         SYMBOL        g_TargetCoordinate
  C:54F9H         PUBLIC        _setCurrentCoordinate
  D:00E0H         PUBLIC        ACC
  C:5515H         PUBLIC        _setTargetCoordinate
  C:4F8CH         SYMBOL        _getPulserCount
  C:5848H         PUBLIC        getSystemState
  C:574AH         PUBLIC        stopSystem
  X:0510H         SYMBOL        g_MotionSystemInfo
  C:584EH         PUBLIC        _setSystemState
  C:4D5DH         PUBLIC        MotionSystem_Init
  D:00D0H         PUBLIC        PSW
  -------         PROC          GETSYSTEMSTATE
  C:5848H         LINE#         42
  C:5848H         LINE#         43
  C:5848H         LINE#         44
  C:584DH         LINE#         45
  -------         ENDPROC       GETSYSTEMSTATE
  -------         PROC          _SETSYSTEMSTATE
  D:0007H         SYMBOL        state
BL51 BANKED LINKER/LOCATER V6.00                                                      07/28/2017  21:19:49  PAGE 22


  C:584EH         LINE#         46
  C:584EH         LINE#         47
  C:584EH         LINE#         48
  C:5853H         LINE#         49
  -------         ENDPROC       _SETSYSTEMSTATE
  -------         PROC          STARTSYSTEM
  C:4DEBH         LINE#         58
  C:4DEBH         LINE#         59
  C:4DEBH         LINE#         60
  C:4DF1H         LINE#         62
  C:4DF4H         LINE#         64
  C:4DF9H         LINE#         65
  C:4DFEH         LINE#         68
  C:4E12H         LINE#         69
  C:4E26H         LINE#         71
  C:4E27H         LINE#         72
  -------         ENDPROC       STARTSYSTEM
  -------         PROC          STOPSYSTEM
  C:574AH         LINE#         81
  C:574AH         LINE#         82
  C:574AH         LINE#         83
  C:574FH         LINE#         84
  C:5754H         LINE#         85
  C:5759H         LINE#         86
  C:575AH         LINE#         87
  -------         ENDPROC       STOPSYSTEM
  -------         PROC          _SETCURRENTCOORDINATE
  D:0004H         SYMBOL        x
  X:0290H         SYMBOL        y
  C:54F9H         LINE#         88
  C:54F9H         LINE#         89
  C:54F9H         LINE#         90
  C:54FFH         LINE#         91
  C:5513H         LINE#         92
  C:5514H         LINE#         93
  -------         ENDPROC       _SETCURRENTCOORDINATE
  -------         PROC          _SETTARGETCOORDINATE
  D:0004H         SYMBOL        x
  X:0341H         SYMBOL        y
  C:5515H         LINE#         103
  C:5515H         LINE#         104
  C:5515H         LINE#         105
  C:551BH         LINE#         106
  C:552FH         LINE#         108
  C:5530H         LINE#         110
  -------         ENDPROC       _SETTARGETCOORDINATE
  -------         PROC          GETCURRENTCOORDINATE
  C:5841H         LINE#         119
  C:5841H         LINE#         120
  C:5841H         LINE#         122
  C:5847H         LINE#         123
  -------         ENDPROC       GETCURRENTCOORDINATE
  -------         PROC          MOTIONSYSTEM_INIT
  C:4D5DH         LINE#         125
  C:4D5DH         LINE#         126
  C:4D5DH         LINE#         128
  C:4D82H         LINE#         129
BL51 BANKED LINKER/LOCATER V6.00                                                      07/28/2017  21:19:49  PAGE 23


  -------         ENDPROC       MOTIONSYSTEM_INIT
  -------         PROC          L?0024
  -------         ENDPROC       L?0024
  -------         PROC          _GETWIRELENGTH
  D:0003H         SYMBOL        wire
  X:039EH         SYMBOL        x
  X:03A2H         SYMBOL        y
  -------         DO            
  X:03A6H         SYMBOL        Length
  -------         ENDDO         
  C:397CH         LINE#         135
  C:397EH         LINE#         136
  C:397EH         LINE#         137
  C:3988H         LINE#         138
  C:398EH         LINE#         139
  C:398EH         LINE#         141
  C:39E0H         LINE#         146
  C:39E2H         LINE#         148
  C:39E2H         LINE#         150
  C:3A65H         LINE#         155
  C:3A65H         LINE#         156
  C:3A73H         LINE#         158
  -------         ENDPROC       _GETWIRELENGTH
  -------         PROC          _TWOPOINTDISTANCE
  X:039DH         SYMBOL        x1
  X:03A1H         SYMBOL        y1
  X:03A5H         SYMBOL        x2
  X:03A9H         SYMBOL        y2
  C:3DEBH         LINE#         160
  C:3DF1H         LINE#         161
  C:3DF1H         LINE#         162
  C:3EA9H         LINE#         163
  -------         ENDPROC       _TWOPOINTDISTANCE
  -------         PROC          L?0025
  -------         ENDPROC       L?0025
  -------         PROC          _GETPULSERCOUNT
  X:039DH         SYMBOL        distance
  C:4F8CH         LINE#         165
  C:4F92H         LINE#         166
  C:4F92H         LINE#         167
  C:4FB8H         LINE#         168
  -------         ENDPROC       _GETPULSERCOUNT
  -------         PROC          SETSTEPMOTORDIS
  -------         DO            
  X:033DH         SYMBOL        str
  X:036FH         SYMBOL        a
  X:0371H         SYMBOL        rightMotorPulse
  X:0375H         SYMBOL        leftMotorPulse
  X:0379H         SYMBOL        D_leftWireLength
  X:037DH         SYMBOL        D_rightWireLength
  X:0381H         SYMBOL        currentLeftWireLength
  X:0385H         SYMBOL        currentRightWireLength
  X:0389H         SYMBOL        targetLeftWireLength
  X:038DH         SYMBOL        targetRightWireLength
  X:0391H         SYMBOL        K
  X:0395H         SYMBOL        rightStepMotorSpeed
  X:0397H         SYMBOL        leftStepMotorSpeed
BL51 BANKED LINKER/LOCATER V6.00                                                      07/28/2017  21:19:49  PAGE 24


  X:0399H         SYMBOL        distance
  -------         ENDDO         
  C:216AH         LINE#         173
  C:216AH         LINE#         174
  C:216AH         LINE#         176
  C:2171H         LINE#         196
  C:2191H         LINE#         197
  C:21C4H         LINE#         209
  C:21E4H         LINE#         210
  C:2217H         LINE#         221
  C:223FH         LINE#         222
  C:2267H         LINE#         223
  C:2292H         LINE#         225
  C:22BDH         LINE#         233
  C:22DEH         LINE#         234
  C:22DEH         LINE#         235
  C:22E0H         LINE#         237
  C:22E2H         LINE#         239
  C:22E2H         LINE#         240
  C:22E9H         LINE#         242
  C:22E9H         LINE#         244
  C:230AH         LINE#         245
  C:230AH         LINE#         246
  C:230CH         LINE#         248
  C:230EH         LINE#         250
  C:230EH         LINE#         251
  C:2315H         LINE#         253
  C:2315H         LINE#         257
  C:2324H         LINE#         259
  C:2333H         LINE#         261
  C:2386H         LINE#         281
  C:23CBH         LINE#         292
  C:23EFH         LINE#         294
  C:23F7H         LINE#         295
  C:23F7H         LINE#         296
  C:2401H         LINE#         297
  C:2429H         LINE#         298
  C:242BH         LINE#         300
  C:242BH         LINE#         301
  C:2435H         LINE#         302
  C:2435H         LINE#         312
  C:245DH         LINE#         313
  C:2485H         LINE#         340
  C:2486H         LINE#         341
  -------         ENDPROC       SETSTEPMOTORDIS
  -------         ENDMOD        TASK

  -------         MODULE        SETUP
  C:0000H         SYMBOL        _ICE_DUMMY_
  D:0080H         PUBLIC        P0
  D:0090H         PUBLIC        P1
  D:00A0H         PUBLIC        P2
  D:00B0H         PUBLIC        P3
  D:00C0H         PUBLIC        P4
  D:00C8H         PUBLIC        P5
  D:00E8H         PUBLIC        P6
  C:4FB9H         PUBLIC        _UART1_init
BL51 BANKED LINKER/LOCATER V6.00                                                      07/28/2017  21:19:49  PAGE 25


  D:00F8H         PUBLIC        P7
  D:00A8H         PUBLIC        IE
  D:00B8H         PUBLIC        IP
  X:0529H         SYMBOL        g_StepMotorCurrentWireLen
  X:0531H         SYMBOL        g_StepMotorTargetWireLen
  D:00D8H         PUBLIC        CCON
  D:0098H         PUBLIC        SCON
  C:5624H         PUBLIC        setup
  D:0088H         PUBLIC        TCON
  X:0539H         SYMBOL        g_CurrentCoordinate
  D:00F0H         PUBLIC        B
  C:5886H         PUBLIC        test
  X:0541H         SYMBOL        g_TargetCoordinate
  D:00E0H         PUBLIC        ACC
  X:0549H         SYMBOL        g_MotionSystemInfo
  D:00D0H         PUBLIC        PSW
  -------         PROC          _UART1_INIT
  D:0004H         SYMBOL        BandRate
  -------         DO            
  X:028CH         SYMBOL        COMx_InitStructure
  -------         ENDDO         
  C:4FB9H         LINE#         37
  C:4FB9H         LINE#         38
  C:4FB9H         LINE#         40
  C:4FBFH         LINE#         41
  C:4FC3H         LINE#         42
  C:4FC7H         LINE#         43
  C:4FCDH         LINE#         44
  C:4FD0H         LINE#         45
  C:4FD3H         LINE#         46
  C:4FD5H         LINE#         47
  C:4FD8H         LINE#         48
  C:4FDAH         LINE#         49
  C:4FE5H         LINE#         50
  -------         ENDPROC       _UART1_INIT
  -------         PROC          TEST
  C:5886H         LINE#         52
  C:5886H         LINE#         53
  C:5886H         LINE#         55
  -------         ENDPROC       TEST
  -------         PROC          SETUP
  C:5624H         LINE#         56
  C:5624H         LINE#         57
  C:5624H         LINE#         59
  C:562FH         LINE#         60
  C:5632H         LINE#         61
  C:5635H         LINE#         62
  C:5638H         LINE#         63
  -------         ENDPROC       SETUP
  -------         ENDMOD        SETUP

  -------         MODULE        MODE
  C:0000H         SYMBOL        _ICE_DUMMY_
  C:5887H         PUBLIC        mode1
  C:5888H         PUBLIC        mode2
  C:5889H         PUBLIC        mode3
  C:588AH         PUBLIC        mode4
BL51 BANKED LINKER/LOCATER V6.00                                                      07/28/2017  21:19:49  PAGE 26


  C:588BH         PUBLIC        modeLauncher
  -------         PROC          MODE1
  C:5887H         LINE#         2
  C:5887H         LINE#         3
  C:5887H         LINE#         5
  -------         ENDPROC       MODE1
  -------         PROC          MODE2
  C:5888H         LINE#         7
  C:5888H         LINE#         8
  C:5888H         LINE#         10
  -------         ENDPROC       MODE2
  -------         PROC          MODE3
  C:5889H         LINE#         13
  C:5889H         LINE#         14
  C:5889H         LINE#         16
  -------         ENDPROC       MODE3
  -------         PROC          MODE4
  C:588AH         LINE#         18
  C:588AH         LINE#         19
  C:588AH         LINE#         21
  -------         ENDPROC       MODE4
  -------         PROC          MODELAUNCHER
  C:588BH         LINE#         22
  C:588BH         LINE#         23
  C:588BH         LINE#         25
  -------         ENDPROC       MODELAUNCHER
  -------         ENDMOD        MODE

  -------         MODULE        DIRECTION
  C:0000H         SYMBOL        _ICE_DUMMY_
  D:0080H         PUBLIC        P0
  D:0090H         PUBLIC        P1
  D:00A0H         PUBLIC        P2
  D:00B0H         PUBLIC        P3
  D:00C0H         PUBLIC        P4
  D:00C8H         PUBLIC        P5
  D:00E8H         PUBLIC        P6
  D:00F8H         PUBLIC        P7
  D:00A8H         PUBLIC        IE
  C:4736H         PUBLIC        gateStateUpdate
  D:00B8H         PUBLIC        IP
  X:046FH         SYMBOL        g_StepMotorCurrentWireLen
  X:0477H         SYMBOL        g_StepMotorTargetWireLen
  C:575BH         PUBLIC        _readGate
  D:00D8H         PUBLIC        CCON
  X:047FH         SYMBOL        gateState
  C:5652H         PUBLIC        _readGate_ADC_Value
  D:0098H         PUBLIC        SCON
  C:3258H         PUBLIC        gateADC_ValueUpdate
  D:0088H         PUBLIC        TCON
  C:542BH         PUBLIC        TrackingSystem_Init
  X:048BH         SYMBOL        g_CurrentCoordinate
  D:00F0H         PUBLIC        B
  X:0493H         SYMBOL        g_TargetCoordinate
  D:00E0H         PUBLIC        ACC
  X:049BH         SYMBOL        g_MotionSystemInfo
  D:00D0H         PUBLIC        PSW
BL51 BANKED LINKER/LOCATER V6.00                                                      07/28/2017  21:19:49  PAGE 27


  -------         PROC          TRACKINGSYSTEM_INIT
  -------         DO            
  X:028CH         SYMBOL        photogateADC
  -------         ENDDO         
  C:542BH         LINE#         25
  C:542BH         LINE#         26
  C:542BH         LINE#         34
  C:5431H         LINE#         35
  C:5435H         LINE#         36
  C:5439H         LINE#         37
  C:543CH         LINE#         38
  C:543EH         LINE#         39
  C:5440H         LINE#         40
  -------         ENDPROC       TRACKINGSYSTEM_INIT
  -------         PROC          _READGATE_ADC_VALUE
  D:0007H         SYMBOL        gate
  C:5652H         LINE#         44
  C:5652H         LINE#         45
  C:5652H         LINE#         46
  C:5665H         LINE#         47
  -------         ENDPROC       _READGATE_ADC_VALUE
  -------         PROC          _READGATE
  D:0007H         SYMBOL        gate
  C:575BH         LINE#         56
  C:575BH         LINE#         57
  C:575BH         LINE#         58
  C:576BH         LINE#         59
  -------         ENDPROC       _READGATE
  -------         PROC          GATEADC_VALUEUPDATE
  -------         DO            
  X:03DCH         SYMBOL        tmp
  X:03DDH         SYMBOL        loopTmp
  X:03DEH         SYMBOL        valueTmp
  -------         ENDDO         
  C:3258H         LINE#         68
  C:3258H         LINE#         69
  C:3258H         LINE#         70
  C:325EH         LINE#         71
  C:3261H         LINE#         73
  C:326DH         LINE#         74
  C:326DH         LINE#         75
  C:3286H         LINE#         76
  C:328EH         LINE#         77
  C:32B1H         LINE#         80
  C:32C1H         LINE#         81
  C:32C1H         LINE#         82
  C:32DAH         LINE#         83
  C:32E2H         LINE#         84
  C:3305H         LINE#         87
  C:3315H         LINE#         88
  C:3315H         LINE#         89
  C:332EH         LINE#         90
  C:3336H         LINE#         91
  C:3359H         LINE#         94
  C:3369H         LINE#         95
  C:3369H         LINE#         96
  C:3382H         LINE#         97
BL51 BANKED LINKER/LOCATER V6.00                                                      07/28/2017  21:19:49  PAGE 28


  C:338AH         LINE#         98
  C:33ADH         LINE#         99
  -------         ENDPROC       GATEADC_VALUEUPDATE
  -------         PROC          GATESTATEUPDATE
  C:4736H         LINE#         108
  C:4736H         LINE#         109
  C:4736H         LINE#         110
  C:4744H         LINE#         111
  C:4744H         LINE#         112
  C:474AH         LINE#         113
  C:474CH         LINE#         115
  C:474CH         LINE#         116
  C:4751H         LINE#         117
  C:4751H         LINE#         118
  C:475FH         LINE#         119
  C:475FH         LINE#         120
  C:4765H         LINE#         121
  C:4767H         LINE#         123
  C:4767H         LINE#         124
  C:476CH         LINE#         125
  C:476CH         LINE#         127
  C:477AH         LINE#         128
  C:477AH         LINE#         129
  C:4780H         LINE#         130
  C:4782H         LINE#         132
  C:4782H         LINE#         133
  C:4787H         LINE#         134
  C:4787H         LINE#         135
  C:4795H         LINE#         136
  C:4795H         LINE#         137
  C:479BH         LINE#         138
  C:479CH         LINE#         140
  C:479CH         LINE#         141
  C:47A1H         LINE#         142
  C:47A1H         LINE#         145
  -------         ENDPROC       GATESTATEUPDATE
  -------         ENDMOD        DIRECTION

  -------         MODULE        ?RTX51_TINY_KERNAL
  C:5666H         SEGMENT       ?RTX?TASKENT?S
  I:0038H         SEGMENT       ?RTX?TASKSP?S
  I:0024H         SEGMENT       ?RTX?TASKSTATE?S
  C:2487H         SEGMENT       ?RTX?CODE
  C:24D3H         PUBLIC        ?RTX?SET_ISR
  D:000CH         PUBLIC        ?RTX_CURRENTTASK
  D:0007H         PUBLIC        ?RTX_NEXTID
  C:24E9H         PUBLIC        ?RTX_NEXTTASK
  N:00FFH         PUBLIC        ?RTX_RAMTOP
  C:5666H         PUBLIC        ?RTX_TASKENTRY
  C:259DH         PUBLIC        ?RTX_TASKIDX
  I:0038H         PUBLIC        ?RTX_TASKSP
  I:0024H         PUBLIC        ?RTX_TASKSTATUS
  C:2564H         PUBLIC        MAIN
  C:24D4H         PUBLIC        OS_SWITCH_TASK
  C:24DBH         SYMBOL        ?C0001
  C:24E5H         SYMBOL        ?C0003
  C:24EAH         SYMBOL        ?C0005
BL51 BANKED LINKER/LOCATER V6.00                                                      07/28/2017  21:19:49  PAGE 29


  C:2504H         SYMBOL        ?C0007
  C:2506H         SYMBOL        ?C0009
  C:2510H         SYMBOL        ?C0011
  C:253DH         SYMBOL        ?C0012
  C:2523H         SYMBOL        ?C0013
  C:2528H         SYMBOL        ?C0015
  C:2533H         SYMBOL        ?C0016
  N:0000H         SYMBOL        ?RTX51_TINY_KERNAL
  N:F63CH         SYMBOL        ?RTX_CLOCK
  N:0008H         SYMBOL        ?RTX_REGISTERBANK
  D:000AH         SYMBOL        ?RTX_SAVEACC
  D:000BH         SYMBOL        ?RTX_SAVEPSW
  C:2487H         SYMBOL        ?RTX_STACKERROR
  D:00E0H         SYMBOL        ACC
  D:00F0H         SYMBOL        B
  N:0005H         SYMBOL        B_ACTIVE
  N:0007H         SYMBOL        B_IVL
  N:0007H         SYMBOL        B_RDY
  N:0004H         SYMBOL        B_READY
  N:0006H         SYMBOL        B_ROBIN
  N:0002H         SYMBOL        B_SIGNAL
  N:0003H         SYMBOL        B_TIMEOUT
  N:0000H         SYMBOL        B_WAITSIG
  N:0001H         SYMBOL        B_WAITTIM
  C:24B1H         SYMBOL        CHECKSTACK
  N:0000H         SYMBOL        CODE_BANKING
  N:0000H         SYMBOL        CPU_IDLE_CODE
  D:0083H         SYMBOL        DPH
  D:0082H         SYMBOL        DPL
  B:00A8H.7       SYMBOL        EA
  B:00A8H.4       SYMBOL        ES
  B:00A8H.1       SYMBOL        ET0
  B:00A8H.3       SYMBOL        ET1
  B:00A8H.0       SYMBOL        EX0
  B:00A8H.2       SYMBOL        EX1
  N:0014H         SYMBOL        FREE_STACK
  C:248BH         SYMBOL        HW_TIMER
  D:00A8H         SYMBOL        IE
  B:0088H.1       SYMBOL        IE0
  B:0088H.3       SYMBOL        IE1
  N:09C4H         SYMBOL        INT_CLOCK
  N:0001H         SYMBOL        INT_REGBANK
  B:0088H.0       SYMBOL        IT0
  B:0088H.2       SYMBOL        IT1
  N:0020H         SYMBOL        K_ACTIVE
  N:0080H         SYMBOL        K_IVL
  N:0080H         SYMBOL        K_RDY
  N:0010H         SYMBOL        K_READY
  N:0040H         SYMBOL        K_ROBIN
  N:0001H         SYMBOL        K_SIG
  N:0002H         SYMBOL        K_TMO
  N:0000H         SYMBOL        LONG_USR_INTR
  C:256DH         SYMBOL        MAIN1
  C:2577H         SYMBOL        MAIN1X
  C:2572H         SYMBOL        MAIN2
  C:255AH         SYMBOL        NOEVENT
  C:24CDH         SYMBOL        NOTIMEOUT
BL51 BANKED LINKER/LOCATER V6.00                                                      07/28/2017  21:19:49  PAGE 30


  C:24CBH         SYMBOL        NOWAITTIMEOUT
  C:24D4H         SYMBOL        OS_SWITCH_TASK1
  D:0087H         SYMBOL        PCON
  D:00D0H         SYMBOL        PSW
  N:00FFH         SYMBOL        RAMTOP
  N:0080H         SYMBOL        RDY_EVENT
  C:254EH         SYMBOL        SIGNALOFF
  C:255AH         SYMBOL        SIGNALON
  N:0004H         SYMBOL        SIG_EVENT
  D:0081H         SYMBOL        SP
  I:0025H         SYMBOL        TASKSTATE
  D:0088H         SYMBOL        TCON
  B:0088H.5       SYMBOL        TF0
  B:0088H.7       SYMBOL        TF1
  D:008CH         SYMBOL        TH0
  D:008DH         SYMBOL        TH1
  C:2556H         SYMBOL        TIMEOUTON
  C:248CH         SYMBOL        TIMERINT
  C:24BDH         SYMBOL        TIMERLOOP
  I:0024H         SYMBOL        TIMERVAL
  N:0000H         SYMBOL        TIMESHARING
  D:008AH         SYMBOL        TL0
  D:008BH         SYMBOL        TL1
  D:0089H         SYMBOL        TMOD
  N:0008H         SYMBOL        TMO_EVENT
  B:0088H.4       SYMBOL        TR0
  B:0088H.6       SYMBOL        TR1
  C:000BH         LINE#         271
  C:2487H         LINE#         279
  C:248BH         LINE#         282
  C:248CH         LINE#         299
  C:248FH         LINE#         301
  C:2492H         LINE#         302
  C:2495H         LINE#         303
  C:2497H         LINE#         305
  C:2499H         LINE#         306
  C:249BH         LINE#         307
  C:249DH         LINE#         308
  C:249FH         LINE#         309
  C:24A1H         LINE#         310
  C:24A3H         LINE#         311
  C:24A5H         LINE#         312
  C:24A7H         LINE#         316
  C:24A8H         LINE#         317
  C:24AAH         LINE#         318
  C:24ABH         LINE#         319
  C:24ACH         LINE#         320
  C:24AFH         LINE#         321
  C:24B1H         LINE#         322
  C:24B2H         LINE#         323
  C:24B4H         LINE#         324
  C:24B7H         LINE#         325
  C:24B9H         LINE#         329
  C:24BBH         LINE#         330
  C:24BDH         LINE#         331
  C:24BEH         LINE#         332
  C:24BFH         LINE#         333
BL51 BANKED LINKER/LOCATER V6.00                                                      07/28/2017  21:19:49  PAGE 31


  C:24C0H         LINE#         334
  C:24C2H         LINE#         335
  C:24C4H         LINE#         336
  C:24C5H         LINE#         337
  C:24C8H         LINE#         338
  C:24CAH         LINE#         339
  C:24CBH         LINE#         340
  C:24CDH         LINE#         341
  C:24CEH         LINE#         342
  C:24D0H         LINE#         344
  C:24D1H         LINE#         345
  C:24D3H         LINE#         354
  C:24D4H         LINE#         426
  C:24D6H         LINE#         427
  C:24D7H         LINE#         429
  C:24D8H         LINE#         430
  C:24DAH         LINE#         431
  C:24DBH         LINE#         434
  C:24DCH         LINE#         435
  C:24DDH         LINE#         436
  C:24DEH         LINE#         444
  C:24E1H         LINE#         445
  C:24E3H         LINE#         446
  C:24E5H         LINE#         449
  C:24E6H         LINE#         450
  C:24E9H         LINE#         458
  C:24EAH         LINE#         462
  C:24ECH         LINE#         463
  C:24EDH         LINE#         464
  C:24EEH         LINE#         465
  C:24F0H         LINE#         468
  C:24F2H         LINE#         470
  C:24F4H         LINE#         471
  C:24F6H         LINE#         472
  C:24F7H         LINE#         473
  C:24F8H         LINE#         474
  C:24F9H         LINE#         476
  C:24FBH         LINE#         478
  C:24FCH         LINE#         479
  C:24FDH         LINE#         480
  C:24FFH         LINE#         481
  C:2502H         LINE#         482
  C:2504H         LINE#         484
  C:2505H         LINE#         485
  C:2506H         LINE#         490
  C:2507H         LINE#         491
  C:2508H         LINE#         492
  C:250AH         LINE#         496
  C:250BH         LINE#         497
  C:250CH         LINE#         498
  C:250EH         LINE#         499
  C:2510H         LINE#         505
  C:2512H         LINE#         506
  C:2513H         LINE#         507
  C:2514H         LINE#         508
  C:2516H         LINE#         510
  C:2518H         LINE#         511
BL51 BANKED LINKER/LOCATER V6.00                                                      07/28/2017  21:19:49  PAGE 32


  C:251AH         LINE#         512
  C:251BH         LINE#         513
  C:251CH         LINE#         516
  C:251EH         LINE#         517
  C:2521H         LINE#         518
  C:2523H         LINE#         520
  C:2524H         LINE#         522
  C:2525H         LINE#         523
  C:2526H         LINE#         524
  C:2527H         LINE#         525
  C:2528H         LINE#         529
  C:252AH         LINE#         530
  C:252BH         LINE#         531
  C:252DH         LINE#         535
  C:252FH         LINE#         536
  C:2530H         LINE#         537
  C:2531H         LINE#         539
  C:2533H         LINE#         543
  C:2535H         LINE#         544
  C:2537H         LINE#         545
  C:2538H         LINE#         546
  C:2539H         LINE#         548
  C:253BH         LINE#         549
  C:253DH         LINE#         559
  C:253FH         LINE#         560
  C:2540H         LINE#         561
  C:2542H         LINE#         562
  C:2543H         LINE#         563
  C:2545H         LINE#         564
  C:2547H         LINE#         565
  C:2548H         LINE#         571
  C:254BH         LINE#         572
  C:254EH         LINE#         576
  C:2550H         LINE#         577
  C:2553H         LINE#         578
  C:2556H         LINE#         580
  C:2558H         LINE#         581
  C:255AH         LINE#         583
  C:255CH         LINE#         584
  C:255DH         LINE#         585
  C:255FH         LINE#         587
  C:2561H         LINE#         588
  C:2563H         LINE#         601
  C:2564H         LINE#         642
  C:2566H         LINE#         643
  C:2568H         LINE#         644
  C:256AH         LINE#         645
  C:256CH         LINE#         646
  C:256DH         LINE#         647
  C:256EH         LINE#         648
  C:2570H         LINE#         649
  C:2572H         LINE#         650
  C:2574H         LINE#         651
  C:2575H         LINE#         652
  C:2577H         LINE#         653
  C:2578H         LINE#         654
  C:2579H         LINE#         655
BL51 BANKED LINKER/LOCATER V6.00                                                      07/28/2017  21:19:49  PAGE 33


  C:257AH         LINE#         656
  C:257BH         LINE#         657
  C:257DH         LINE#         658
  C:257FH         LINE#         659
  C:2581H         LINE#         660
  C:2584H         LINE#         661
  C:2586H         LINE#         662
  C:2587H         LINE#         663
  C:2589H         LINE#         664
  C:258AH         LINE#         665
  C:258BH         LINE#         666
  C:258DH         LINE#         670
  C:2590H         LINE#         671
  C:2593H         LINE#         672
  C:2596H         LINE#         673
  C:2598H         LINE#         674
  C:259AH         LINE#         675
  C:259CH         LINE#         676
  -------         ENDMOD        ?RTX51_TINY_KERNAL

  -------         MODULE        FILTER
  C:0000H         SYMBOL        _ICE_DUMMY_
  D:0080H         PUBLIC        P0
  D:0090H         PUBLIC        P1
  D:00A0H         PUBLIC        P2
  D:00B0H         PUBLIC        P3
  D:00C0H         PUBLIC        P4
  D:00C8H         PUBLIC        P5
  D:00E8H         PUBLIC        P6
  D:00F8H         PUBLIC        P7
  C:33AEH         PUBLIC        _filter
  D:00A8H         PUBLIC        IE
  D:00B8H         PUBLIC        IP
  D:00D8H         PUBLIC        CCON
  D:0098H         PUBLIC        SCON
  D:0088H         PUBLIC        TCON
  D:00F0H         PUBLIC        B
  D:00E0H         PUBLIC        ACC
  D:00D0H         PUBLIC        PSW
  -------         PROC          _FILTER
  D:0001H         SYMBOL        ary
  X:03F5H         SYMBOL        num
  X:03F6H         SYMBOL        MaxValue
  X:03F8H         SYMBOL        MinValue
  -------         DO            
  X:03FAH         SYMBOL        angleDataloopTemp2
  X:03FCH         SYMBOL        finalData
  X:03FEH         SYMBOL        maxValue
  X:0400H         SYMBOL        minValue
  -------         ENDDO         
  C:33AEH         LINE#         2
  C:33B3H         LINE#         3
  C:33B3H         LINE#         5
  C:33BAH         LINE#         6
  C:33C9H         LINE#         7
  C:33D8H         LINE#         8
  C:33FAH         LINE#         9
BL51 BANKED LINKER/LOCATER V6.00                                                      07/28/2017  21:19:49  PAGE 34


  C:33FAH         LINE#         10
  C:3416H         LINE#         11
  C:3416H         LINE#         12
  C:3433H         LINE#         13
  C:3433H         LINE#         14
  C:3455H         LINE#         15
  C:3455H         LINE#         16
  C:3472H         LINE#         17
  C:3472H         LINE#         18
  C:3494H         LINE#         19
  C:34A8H         LINE#         20
  C:34CDH         LINE#         21
  C:34E3H         LINE#         22
  C:34E3H         LINE#         23
  -------         ENDPROC       _FILTER
  -------         ENDMOD        FILTER

  -------         MODULE        DATASCOPE_DP
  C:0000H         SYMBOL        _ICE_DUMMY_
  D:0080H         PUBLIC        P0
  D:0090H         PUBLIC        P1
  D:00A0H         PUBLIC        P2
  D:00B0H         PUBLIC        P3
  D:00C0H         PUBLIC        P4
  D:00C8H         PUBLIC        P5
  D:00E8H         PUBLIC        P6
  D:00F8H         PUBLIC        P7
  X:0562H         PUBLIC        DataScope_OutPut_Buffer
  D:00A8H         PUBLIC        IE
  D:00B8H         PUBLIC        IP
  D:00D8H         PUBLIC        CCON
  C:5021H         PUBLIC        _sendScopeData
  D:0098H         PUBLIC        SCON
  D:0088H         PUBLIC        TCON
  D:00F0H         PUBLIC        B
  C:400AH         PUBLIC        _Float2Byte
  D:00E0H         PUBLIC        ACC
  C:40B4H         PUBLIC        _DataScope_Data_Generate
  C:34E4H         PUBLIC        _DataScope_Get_Channel_Data
  D:00D0H         PUBLIC        PSW
  -------         PROC          _FLOAT2BYTE
  D:0001H         SYMBOL        target
  X:03D5H         SYMBOL        buf
  X:03D8H         SYMBOL        beg
  -------         DO            
  X:03D9H         SYMBOL        point
  -------         ENDDO         
  C:400AH         LINE#         26
  C:400AH         LINE#         27
  C:400AH         LINE#         29
  C:4015H         LINE#         30
  C:4033H         LINE#         31
  C:405FH         LINE#         32
  C:408BH         LINE#         33
  -------         ENDPROC       _FLOAT2BYTE
  -------         PROC          _SENDSCOPEDATA
  X:03CDH         SYMBOL        channe_num
BL51 BANKED LINKER/LOCATER V6.00                                                      07/28/2017  21:19:49  PAGE 35


  -------         DO            
  X:03CEH         SYMBOL        a
  -------         ENDDO         
  C:5021H         LINE#         43
  C:5026H         LINE#         44
  C:5026H         LINE#         48
  C:503AH         LINE#         49
  C:503AH         LINE#         50
  C:5049H         LINE#         51
  C:5051H         LINE#         53
  -------         ENDPROC       _SENDSCOPEDATA
  -------         PROC          _DATASCOPE_GET_CHANNEL_DATA
  X:03CDH         SYMBOL        Data
  X:03D1H         SYMBOL        Channel
  C:34E4H         LINE#         59
  C:34EAH         LINE#         60
  C:34EAH         LINE#         61
  C:34FDH         LINE#         62
  C:34FDH         LINE#         64
  C:34FDH         LINE#         66
  C:34FDH         LINE#         67
  C:3533H         LINE#         68
  C:3533H         LINE#         69
  C:3533H         LINE#         70
  C:3546H         LINE#         71
  C:3549H         LINE#         72
  C:3549H         LINE#         73
  C:355DH         LINE#         74
  C:3560H         LINE#         75
  C:3560H         LINE#         76
  C:3574H         LINE#         77
  C:3577H         LINE#         78
  C:3577H         LINE#         79
  C:358BH         LINE#         80
  C:358EH         LINE#         81
  C:358EH         LINE#         82
  C:35A2H         LINE#         83
  C:35A4H         LINE#         84
  C:35A4H         LINE#         85
  C:35B8H         LINE#         86
  C:35BAH         LINE#         87
  C:35BAH         LINE#         88
  C:35CEH         LINE#         89
  C:35D0H         LINE#         90
  C:35D0H         LINE#         91
  C:35E4H         LINE#         92
  C:35E6H         LINE#         93
  C:35E6H         LINE#         94
  C:35FAH         LINE#         95
  C:35FCH         LINE#         96
  C:35FCH         LINE#         97
  C:3617H         LINE#         98
  C:3617H         LINE#         99
  C:3617H         LINE#         100
  C:3617H         LINE#         101
  -------         ENDPROC       _DATASCOPE_GET_CHANNEL_DATA
  -------         PROC          _DATASCOPE_DATA_GENERATE
BL51 BANKED LINKER/LOCATER V6.00                                                      07/28/2017  21:19:49  PAGE 36


  D:0007H         SYMBOL        Channel_Number
  C:40B4H         LINE#         106
  C:40B4H         LINE#         107
  C:40B4H         LINE#         108
  C:40BDH         LINE#         109
  C:40BDH         LINE#         110
  C:40C0H         LINE#         111
  C:40C0H         LINE#         113
  C:40C0H         LINE#         114
  C:40C6H         LINE#         115
  C:40FCH         LINE#         116
  C:40FCH         LINE#         117
  C:40FCH         LINE#         118
  C:4102H         LINE#         119
  C:4105H         LINE#         120
  C:4105H         LINE#         121
  C:4105H         LINE#         122
  C:410BH         LINE#         123
  C:410EH         LINE#         124
  C:410EH         LINE#         125
  C:410EH         LINE#         126
  C:4114H         LINE#         127
  C:4117H         LINE#         128
  C:4117H         LINE#         129
  C:4117H         LINE#         130
  C:411DH         LINE#         131
  C:4120H         LINE#         132
  C:4120H         LINE#         133
  C:4120H         LINE#         134
  C:4126H         LINE#         135
  C:4129H         LINE#         136
  C:4129H         LINE#         137
  C:4129H         LINE#         138
  C:412FH         LINE#         139
  C:4132H         LINE#         140
  C:4132H         LINE#         141
  C:4132H         LINE#         142
  C:4138H         LINE#         143
  C:413BH         LINE#         144
  C:413BH         LINE#         145
  C:413BH         LINE#         146
  C:4141H         LINE#         147
  C:4144H         LINE#         148
  C:4144H         LINE#         149
  C:4144H         LINE#         150
  C:414AH         LINE#         151
  C:414DH         LINE#         152
  C:414DH         LINE#         153
  C:414DH         LINE#         154
  C:4153H         LINE#         155
  C:4156H         LINE#         156
  C:4156H         LINE#         157
  C:4156H         LINE#         158
  C:4156H         LINE#         159
  C:4158H         LINE#         160
  -------         ENDPROC       _DATASCOPE_DATA_GENERATE
  -------         ENDMOD        DATASCOPE_DP
BL51 BANKED LINKER/LOCATER V6.00                                                      07/28/2017  21:19:49  PAGE 37



  -------         MODULE        STORAGE
  C:0000H         SYMBOL        _ICE_DUMMY_
  D:0080H         PUBLIC        P0
  D:0090H         PUBLIC        P1
  D:00A0H         PUBLIC        P2
  D:00B0H         PUBLIC        P3
  D:00C0H         PUBLIC        P4
  D:00C8H         PUBLIC        P5
  D:00E8H         PUBLIC        P6
  D:00F8H         PUBLIC        P7
  D:00A8H         PUBLIC        IE
  D:00B8H         PUBLIC        IP
  D:00D8H         PUBLIC        CCON
  C:5714H         PUBLIC        _writeData
  D:0098H         PUBLIC        SCON
  D:0088H         PUBLIC        TCON
  D:00F0H         PUBLIC        B
  D:00E0H         PUBLIC        ACC
  D:00D0H         PUBLIC        PSW
  -------         PROC          _WRITEDATA
  X:0621H         SYMBOL        add
  X:0623H         SYMBOL        Data
  C:5714H         LINE#         3
  C:5725H         LINE#         4
  C:5725H         LINE#         6
  -------         ENDPROC       _WRITEDATA
  -------         ENDMOD        STORAGE

  -------         MODULE        BUTTON
  C:0000H         SYMBOL        _ICE_DUMMY_
  D:0080H         PUBLIC        P0
  D:0090H         PUBLIC        P1
  D:00A0H         PUBLIC        P2
  D:00B0H         PUBLIC        P3
  D:00C0H         PUBLIC        P4
  D:00C8H         PUBLIC        P5
  D:00E8H         PUBLIC        P6
  D:00F8H         PUBLIC        P7
  D:00A8H         PUBLIC        IE
  D:00B8H         PUBLIC        IP
  D:00D8H         PUBLIC        CCON
  C:4B76H         PUBLIC        buttonScan
  B:0022H.2       SYMBOL        BUTTON1_bit
  B:0022H.3       SYMBOL        BUTTON2_bit
  B:0022H.4       SYMBOL        BUTTON3_bit
  B:0022H.5       SYMBOL        BUTTON4_bit
  D:0098H         PUBLIC        SCON
  B:00A0H.3       PUBLIC        P23
  D:0088H         PUBLIC        TCON
  B:00A0H.4       PUBLIC        P24
  B:00A0H.5       PUBLIC        P25
  B:00A0H.6       PUBLIC        P26
  D:00F0H         PUBLIC        B
  C:5485H         PUBLIC        _getButtonState
  D:00E0H         PUBLIC        ACC
  C:5373H         PUBLIC        Button_config
BL51 BANKED LINKER/LOCATER V6.00                                                      07/28/2017  21:19:49  PAGE 38


  C:5811H         SYMBOL        _digitalRead
  D:00D0H         PUBLIC        PSW
  -------         PROC          BUTTON_CONFIG
  -------         DO            
  X:063DH         SYMBOL        GPIO_InitStructure
  -------         ENDDO         
  C:5373H         LINE#         25
  C:5373H         LINE#         26
  C:5373H         LINE#         28
  C:5379H         LINE#         29
  C:537EH         LINE#         30
  C:5389H         LINE#         31
  C:538BH         LINE#         32
  C:538DH         LINE#         33
  C:538FH         LINE#         34
  C:5391H         LINE#         35
  -------         ENDPROC       BUTTON_CONFIG
  -------         PROC          _DIGITALREAD
  D:0006H         SYMBOL        pin
  C:5811H         LINE#         43
  C:5811H         LINE#         44
  C:5811H         LINE#         45
  C:5815H         LINE#         46
  C:5815H         LINE#         47
  C:581AH         LINE#         48
  C:581AH         LINE#         49
  -------         ENDPROC       _DIGITALREAD
  -------         PROC          _GETBUTTONSTATE
  D:0007H         SYMBOL        BUTTON_data
  C:5485H         LINE#         61
  C:5485H         LINE#         62
  C:5485H         LINE#         63
  C:5496H         LINE#         64
  C:5496H         LINE#         65
  C:5496H         LINE#         66
  C:5499H         LINE#         67
  C:5499H         LINE#         68
  C:5499H         LINE#         69
  C:549CH         LINE#         70
  C:549CH         LINE#         71
  C:549CH         LINE#         72
  C:549FH         LINE#         73
  C:549FH         LINE#         74
  C:549FH         LINE#         75
  C:54A1H         LINE#         76
  C:54A1H         LINE#         77
  C:54A1H         LINE#         78
  -------         ENDPROC       _GETBUTTONSTATE
  -------         PROC          BUTTONSCAN
  C:4B76H         LINE#         88
  C:4B76H         LINE#         89
  C:4B76H         LINE#         90
  C:4B81H         LINE#         91
  C:4B81H         LINE#         92
  C:4B8BH         LINE#         93
  C:4B8BH         LINE#         97
  C:4B8DH         LINE#         98
BL51 BANKED LINKER/LOCATER V6.00                                                      07/28/2017  21:19:49  PAGE 39


  C:4B8DH         LINE#         99
  C:4B8FH         LINE#         101
  C:4B8FH         LINE#         102
  C:4B91H         LINE#         103
  C:4B91H         LINE#         104
  C:4B9CH         LINE#         105
  C:4B9CH         LINE#         106
  C:4B9FH         LINE#         107
  C:4B9FH         LINE#         111
  C:4BA1H         LINE#         112
  C:4BA1H         LINE#         113
  C:4BA3H         LINE#         115
  C:4BA3H         LINE#         116
  C:4BA5H         LINE#         117
  C:4BA5H         LINE#         118
  C:4BB0H         LINE#         119
  C:4BB0H         LINE#         120
  C:4BB3H         LINE#         121
  C:4BB3H         LINE#         125
  C:4BB5H         LINE#         127
  C:4BB5H         LINE#         128
  C:4BB7H         LINE#         130
  C:4BB7H         LINE#         131
  C:4BB9H         LINE#         132
  C:4BB9H         LINE#         133
  C:4BC4H         LINE#         134
  C:4BC4H         LINE#         135
  C:4BC7H         LINE#         136
  C:4BC7H         LINE#         140
  C:4BC9H         LINE#         142
  C:4BC9H         LINE#         143
  C:4BCAH         LINE#         145
  C:4BCAH         LINE#         146
  C:4BCCH         LINE#         147
  C:4BCCH         LINE#         148
  -------         ENDPROC       BUTTONSCAN
  -------         ENDMOD        BUTTON

  -------         MODULE        LED
  C:0000H         SYMBOL        _ICE_DUMMY_
  D:0080H         PUBLIC        P0
  D:0090H         PUBLIC        P1
  D:00A0H         PUBLIC        P2
  D:00B0H         PUBLIC        P3
  D:00C0H         PUBLIC        P4
  D:00C8H         PUBLIC        P5
  B:0023H.0       SYMBOL        Board_LED_State
  D:00E8H         PUBLIC        P6
  D:00F8H         PUBLIC        P7
  D:00A8H         PUBLIC        IE
  C:52CFH         PUBLIC        _blink
  C:52F1H         PUBLIC        Board_LED_Init
  D:00B8H         PUBLIC        IP
  C:5877H         PUBLIC        close_Board_LED
  D:00D8H         PUBLIC        CCON
  D:0098H         PUBLIC        SCON
  D:0088H         PUBLIC        TCON
BL51 BANKED LINKER/LOCATER V6.00                                                      07/28/2017  21:19:49  PAGE 40


  C:5872H         PUBLIC        open_Board_LED
  B:00C8H.5       PUBLIC        P55
  D:00F0H         PUBLIC        B
  D:00E0H         PUBLIC        ACC
  C:5880H         PUBLIC        getBoard_LED_State
  C:5854H         PUBLIC        _Board_LED_PWM
  D:00D0H         PUBLIC        PSW
  -------         PROC          BOARD_LED_INIT
  -------         DO            
  X:028CH         SYMBOL        GPIO_InitStructure
  -------         ENDDO         
  C:52F1H         LINE#         11
  C:52F1H         LINE#         12
  C:52F1H         LINE#         14
  C:52F7H         LINE#         15
  C:52FCH         LINE#         16
  C:5307H         LINE#         17
  C:5310H         LINE#         18
  C:5311H         LINE#         19
  -------         ENDPROC       BOARD_LED_INIT
  -------         PROC          OPEN_BOARD_LED
  C:5872H         LINE#         20
  C:5872H         LINE#         21
  C:5872H         LINE#         22
  C:5874H         LINE#         23
  C:5876H         LINE#         24
  -------         ENDPROC       OPEN_BOARD_LED
  -------         PROC          CLOSE_BOARD_LED
  C:5877H         LINE#         25
  C:5877H         LINE#         26
  C:5877H         LINE#         27
  C:5879H         LINE#         28
  C:587BH         LINE#         30
  -------         ENDPROC       CLOSE_BOARD_LED
  -------         PROC          _BLINK
  X:028CH         SYMBOL        time
  C:52CFH         LINE#         31
  C:52D4H         LINE#         32
  C:52D4H         LINE#         33
  C:52DEH         LINE#         34
  C:52DEH         LINE#         35
  C:52E1H         LINE#         36
  C:52E6H         LINE#         37
  C:52E9H         LINE#         38
  C:52EEH         LINE#         40
  C:52F0H         LINE#         41
  -------         ENDPROC       _BLINK
  -------         PROC          GETBOARD_LED_STATE
  C:5880H         LINE#         42
  C:5880H         LINE#         43
  C:5880H         LINE#         44
  C:5882H         LINE#         45
  -------         ENDPROC       GETBOARD_LED_STATE
  -------         PROC          _BOARD_LED_PWM
  X:0648H         SYMBOL        luminance
  C:5854H         LINE#         46
  C:5859H         LINE#         47
BL51 BANKED LINKER/LOCATER V6.00                                                      07/28/2017  21:19:49  PAGE 41


  C:5859H         LINE#         48
  C:5859H         LINE#         49
  C:5859H         LINE#         52
  C:5859H         LINE#         54
  -------         ENDPROC       _BOARD_LED_PWM
  -------         ENDMOD        LED

  -------         MODULE        STEP_MOTOR
  C:0000H         SYMBOL        _ICE_DUMMY_
  D:0080H         PUBLIC        P0
  D:0090H         PUBLIC        P1
  D:00A0H         PUBLIC        P2
  D:00B0H         PUBLIC        P3
  D:00C0H         PUBLIC        P4
  D:00C8H         PUBLIC        P5
  D:00E8H         PUBLIC        P6
  C:57CDH         PUBLIC        _setStepMotorState
  D:00F8H         PUBLIC        P7
  C:4947H         PUBLIC        _setStepMotorWithAngle
  D:00A8H         PUBLIC        IE
  B:00A0H.6       PUBLIC        StepMotor_1_LockControl
  B:00A0H.4       PUBLIC        StepMotor_2_LockControl
  D:00B8H         PUBLIC        IP
  X:058CH         SYMBOL        g_stepMotor
  D:00D8H         PUBLIC        CCON
  C:54A2H         PUBLIC        _close_StepMotor
  C:4EA0H         PUBLIC        _setStepMotorWithRound
  C:5260H         PUBLIC        _setStepMotorWithPulse
  D:0098H         PUBLIC        SCON
  D:0088H         PUBLIC        TCON
  C:55A1H         PUBLIC        _setStepMotorDiversion
  D:00F0H         PUBLIC        B
  B:00A0H.7       PUBLIC        StepMotor_1_DiversionControl
  B:00A0H.5       PUBLIC        StepMotor_2_DiversionControl
  D:00E0H         PUBLIC        ACC
  C:56B5H         PUBLIC        _open_StepMotor
  C:4159H         PUBLIC        _stepMotor_Init
  C:3D24H         PUBLIC        _setStepMotorWithDistance
  C:5531H         PUBLIC        _freeStepMotor
  C:554DH         PUBLIC        _lockStepMotor
  C:576CH         PUBLIC        _getStepMotorState
  D:00D0H         PUBLIC        PSW
  -------         PROC          _SETSTEPMOTORWITHPULSE
  D:0007H         SYMBOL        motor
  X:039EH         SYMBOL        pulse
  X:03A2H         SYMBOL        speed
  C:5260H         LINE#         35
  C:5260H         LINE#         36
  C:5260H         LINE#         37
  C:5283H         LINE#         38
  C:5284H         LINE#         39
  -------         ENDPROC       _SETSTEPMOTORWITHPULSE
  -------         PROC          _SETSTEPMOTORWITHDISTANCE
  X:060DH         SYMBOL        motor
  X:060EH         SYMBOL        distance
  X:0612H         SYMBOL        speed
  C:3D24H         LINE#         50
BL51 BANKED LINKER/LOCATER V6.00                                                      07/28/2017  21:19:49  PAGE 42


  C:3D29H         LINE#         51
  C:3D29H         LINE#         54
  C:3DE9H         LINE#         56
  C:3DEAH         LINE#         58
  -------         ENDPROC       _SETSTEPMOTORWITHDISTANCE
  -------         PROC          _SETSTEPMOTORWITHANGLE
  X:0614H         SYMBOL        motor
  X:0615H         SYMBOL        angle
  X:0619H         SYMBOL        speed
  C:4947H         LINE#         69
  C:494CH         LINE#         70
  C:494CH         LINE#         72
  C:49AAH         LINE#         73
  C:49ABH         LINE#         74
  -------         ENDPROC       _SETSTEPMOTORWITHANGLE
  -------         PROC          _SETSTEPMOTORWITHROUND
  D:0007H         SYMBOL        motor
  D:0004H         SYMBOL        round
  X:063FH         SYMBOL        speed
  C:4EA0H         LINE#         85
  C:4EA8H         LINE#         86
  C:4EA8H         LINE#         87
  C:4ED7H         LINE#         88
  C:4ED8H         LINE#         89
  -------         ENDPROC       _SETSTEPMOTORWITHROUND
  -------         PROC          _SETSTEPMOTORSTATE
  D:0007H         SYMBOL        motor
  D:0005H         SYMBOL        state
  C:57CDH         LINE#         90
  C:57CDH         LINE#         91
  C:57CDH         LINE#         92
  C:57D0H         LINE#         93
  C:57D0H         LINE#         94
  C:57D5H         LINE#         95
  C:57D6H         LINE#         97
  C:57D6H         LINE#         98
  C:57DBH         LINE#         99
  C:57DBH         LINE#         100
  -------         ENDPROC       _SETSTEPMOTORSTATE
  -------         PROC          _GETSTEPMOTORSTATE
  D:0007H         SYMBOL        motor
  C:576CH         LINE#         109
  C:576CH         LINE#         110
  C:576CH         LINE#         111
  C:577CH         LINE#         112
  -------         ENDPROC       _GETSTEPMOTORSTATE
  -------         PROC          _SETSTEPMOTORDIVERSION
  D:0007H         SYMBOL        motor
  B:0021H.1       SYMBOL        diversion
  C:55A1H         LINE#         114
  C:55A1H         LINE#         115
  C:55A1H         LINE#         117
  C:55A4H         LINE#         118
  C:55A4H         LINE#         119
  C:55A7H         LINE#         120
  C:55A7H         LINE#         121
  C:55A9H         LINE#         122
BL51 BANKED LINKER/LOCATER V6.00                                                      07/28/2017  21:19:49  PAGE 43


  C:55ABH         LINE#         124
  C:55ABH         LINE#         125
  C:55ADH         LINE#         126
  C:55ADH         LINE#         127
  C:55ADH         LINE#         128
  C:55B1H         LINE#         129
  C:55B1H         LINE#         130
  C:55B4H         LINE#         131
  C:55B4H         LINE#         132
  C:55B6H         LINE#         133
  C:55B8H         LINE#         135
  C:55B8H         LINE#         136
  C:55BAH         LINE#         137
  C:55BAH         LINE#         138
  C:55BAH         LINE#         141
  C:55BBH         LINE#         142
  -------         ENDPROC       _SETSTEPMOTORDIVERSION
  -------         PROC          _CLOSE_STEPMOTOR
  X:0649H         SYMBOL        motor
  C:54A2H         LINE#         151
  C:54A7H         LINE#         152
  C:54A7H         LINE#         153
  C:54AAH         LINE#         154
  C:54BEH         LINE#         156
  -------         ENDPROC       _CLOSE_STEPMOTOR
  -------         PROC          _OPEN_STEPMOTOR
  D:0007H         SYMBOL        motor
  C:56B5H         LINE#         165
  C:56B5H         LINE#         166
  C:56B5H         LINE#         167
  C:56C5H         LINE#         168
  -------         ENDPROC       _OPEN_STEPMOTOR
  -------         PROC          _FREESTEPMOTOR
  D:0007H         SYMBOL        motor
  C:5531H         LINE#         178
  C:5531H         LINE#         179
  C:5531H         LINE#         180
  C:5534H         LINE#         181
  C:5534H         LINE#         182
  C:5536H         LINE#         183
  C:5538H         LINE#         185
  C:5538H         LINE#         186
  C:553AH         LINE#         187
  C:553AH         LINE#         188
  C:554BH         LINE#         189
  C:554CH         LINE#         190
  -------         ENDPROC       _FREESTEPMOTOR
  -------         PROC          _LOCKSTEPMOTOR
  D:0007H         SYMBOL        motor
  C:554DH         LINE#         199
  C:554DH         LINE#         200
  C:554DH         LINE#         201
  C:5550H         LINE#         202
  C:5550H         LINE#         203
  C:5552H         LINE#         204
  C:5554H         LINE#         206
  C:5554H         LINE#         207
BL51 BANKED LINKER/LOCATER V6.00                                                      07/28/2017  21:19:49  PAGE 44


  C:5556H         LINE#         208
  C:5556H         LINE#         209
  C:5567H         LINE#         211
  C:5568H         LINE#         212
  -------         ENDPROC       _LOCKSTEPMOTOR
  -------         PROC          _STEPMOTOR_INIT
  X:028CH         SYMBOL        motor
  X:028DH         SYMBOL        div
  X:0291H         SYMBOL        driverDiv
  X:0292H         SYMBOL        maxPeriod
  X:0294H         SYMBOL        bearingDia
  -------         DO            
  X:0298H         SYMBOL        GPIO_InitStructure
  -------         ENDDO         
  C:4159H         LINE#         224
  C:415EH         LINE#         225
  C:415EH         LINE#         231
  C:4163H         LINE#         232
  C:4167H         LINE#         233
  C:4172H         LINE#         234
  C:4195H         LINE#         235
  C:41AAH         LINE#         236
  C:41C5H         LINE#         237
  C:41E4H         LINE#         238
  C:41F5H         LINE#         239
  -------         ENDPROC       _STEPMOTOR_INIT
  -------         ENDMOD        STEP_MOTOR

  -------         MODULE        LCD5510_V2
  C:0000H         SYMBOL        _ICE_DUMMY_
  D:0080H         PUBLIC        P0
  D:0090H         PUBLIC        P1
  D:00A0H         PUBLIC        P2
  D:00B0H         PUBLIC        P3
  D:00C0H         PUBLIC        P4
  D:00C8H         PUBLIC        P5
  D:00E8H         PUBLIC        P6
  D:00F8H         PUBLIC        P7
  D:00A8H         PUBLIC        IE
  B:00C8H.0       PUBLIC        LCD_CLK
  B:00C8H.1       PUBLIC        LCD_DIN
  C:272AH         PUBLIC        Font_code
  C:4CC4H         PUBLIC        LCD5510_Init
  D:00B8H         PUBLIC        IP
  C:567AH         PUBLIC        _LCD_pos_byte
  C:5312H         PUBLIC        LCD_clr_scr
  D:00D8H         PUBLIC        CCON
  B:00C8H.4       PUBLIC        LCD_RST
  C:56C8H         PUBLIC        _LCD_clr_row
  D:0098H         PUBLIC        SCON
  D:0088H         PUBLIC        TCON
  B:00C8H.2       PUBLIC        LCD_DC
  D:00F0H         PUBLIC        B
  C:4D12H         PUBLIC        _LCD_printsl
  D:00E0H         PUBLIC        ACC
  C:4E2FH         PUBLIC        _LCD_printc
  B:00C8H.3       PUBLIC        LCD_CS
BL51 BANKED LINKER/LOCATER V6.00                                                      07/28/2017  21:19:49  PAGE 45


  C:4E65H         PUBLIC        _LCD_prints
  C:5353H         PUBLIC        _LCD_write_byte
  D:00D0H         PUBLIC        PSW
  -------         PROC          _LCD_WRITE_BYTE
  D:0007H         SYMBOL        wbyte
  D:0005H         SYMBOL        dat_cmd
  -------         DO            
  D:0006H         SYMBOL        i
  -------         ENDDO         
  C:5353H         LINE#         115
  C:5353H         LINE#         116
  C:5353H         LINE#         119
  C:5355H         LINE#         120
  C:535AH         LINE#         122
  C:535CH         LINE#         123
  C:535CH         LINE#         124
  C:5364H         LINE#         125
  C:5366H         LINE#         127
  C:5368H         LINE#         128
  C:536CH         LINE#         129
  C:536EH         LINE#         130
  C:5370H         LINE#         132
  C:5372H         LINE#         133
  -------         ENDPROC       _LCD_WRITE_BYTE
  -------         PROC          LCD_CLR_SCR
  -------         DO            
  D:0002H         SYMBOL        i
  -------         ENDDO         
  C:5312H         LINE#         168
  C:5312H         LINE#         169
  C:5312H         LINE#         172
  C:5319H         LINE#         173
  C:531EH         LINE#         175
  C:5332H         LINE#         176
  -------         ENDPROC       LCD_CLR_SCR
  -------         PROC          _LCD_CLR_ROW
  D:0007H         SYMBOL        num
  -------         DO            
  D:0004H         SYMBOL        i
  -------         ENDDO         
  C:56C8H         LINE#         182
  C:56C8H         LINE#         183
  C:56C8H         LINE#         186
  C:56CFH         LINE#         187
  C:56DAH         LINE#         188
  -------         ENDPROC       _LCD_CLR_ROW
  -------         PROC          _LCD_POS_BYTE
  D:0007H         SYMBOL        x
  D:0004H         SYMBOL        y
  C:567AH         LINE#         196
  C:567CH         LINE#         197
  C:567CH         LINE#         198
  C:5680H         LINE#         199
  C:5684H         LINE#         200
  C:5689H         LINE#         201
  -------         ENDPROC       _LCD_POS_BYTE
  -------         PROC          L?0030
BL51 BANKED LINKER/LOCATER V6.00                                                      07/28/2017  21:19:49  PAGE 46


  -------         ENDPROC       L?0030
  -------         PROC          _LCD_PRINTC
  D:0007H         SYMBOL        x
  D:0005H         SYMBOL        y
  D:0003H         SYMBOL        c_dat
  -------         DO            
  D:0004H         SYMBOL        i
  -------         ENDDO         
  C:4E2FH         LINE#         209
  C:4E2FH         LINE#         210
  C:4E2FH         LINE#         213
  C:4E33H         LINE#         214
  C:4E39H         LINE#         216
  C:4E3CH         LINE#         217
  C:4E64H         LINE#         218
  -------         ENDPROC       _LCD_PRINTC
  -------         PROC          _LCD_PRINTS
  X:0626H         SYMBOL        x
  X:0627H         SYMBOL        y
  X:0628H         SYMBOL        s_dat
  C:4E65H         LINE#         225
  C:4E76H         LINE#         226
  C:4E76H         LINE#         227
  C:4E9FH         LINE#         228
  -------         ENDPROC       _LCD_PRINTS
  -------         PROC          _LCD_PRINTSL
  X:062BH         SYMBOL        x
  X:062CH         SYMBOL        y
  X:062DH         SYMBOL        s_dat
  C:4D12H         LINE#         235
  C:4D23H         LINE#         236
  C:4D23H         LINE#         237
  C:4D34H         LINE#         238
  C:4D34H         LINE#         239
  C:4D3AH         LINE#         240
  C:4D44H         LINE#         241
  C:4D51H         LINE#         242
  C:4D5AH         LINE#         243
  C:4D5CH         LINE#         244
  -------         ENDPROC       _LCD_PRINTSL
  -------         PROC          LCD5510_INIT
  -------         DO            
  X:0641H         SYMBOL        GPIO_InitStructure
  -------         ENDDO         
  C:4CC4H         LINE#         267
  C:4CC4H         LINE#         268
  C:4CC4H         LINE#         270
  C:4CC9H         LINE#         271
  C:4CCDH         LINE#         272
  C:4CD8H         LINE#         273
  C:4CDCH         LINE#         276
  C:4CE3H         LINE#         277
  C:4CE8H         LINE#         278
  C:4CEDH         LINE#         279
  C:4CF2H         LINE#         281
  C:4CF7H         LINE#         282
  C:4CFCH         LINE#         283
BL51 BANKED LINKER/LOCATER V6.00                                                      07/28/2017  21:19:49  PAGE 47


  C:4D01H         LINE#         284
  C:4D06H         LINE#         285
  C:4D09H         LINE#         286
  -------         ENDPROC       LCD5510_INIT
  -------         ENDMOD        LCD5510_V2

  -------         MODULE        ANGLE
  C:0000H         SYMBOL        _ICE_DUMMY_
  D:0080H         PUBLIC        P0
  D:0090H         PUBLIC        P1
  D:00A0H         PUBLIC        P2
  D:00B0H         PUBLIC        P3
  D:00C0H         PUBLIC        P4
  D:00C8H         PUBLIC        P5
  D:00E8H         PUBLIC        P6
  D:00F8H         PUBLIC        P7
  D:00A8H         PUBLIC        IE
  D:00B8H         PUBLIC        IP
  C:5569H         PUBLIC        _ADC_config
  D:00D8H         PUBLIC        CCON
  C:46BCH         PUBLIC        getAngle
  D:0098H         PUBLIC        SCON
  D:0088H         PUBLIC        TCON
  D:00F0H         PUBLIC        B
  D:00E0H         PUBLIC        ACC
  D:00D0H         PUBLIC        PSW
  -------         PROC          _ADC_CONFIG
  D:0007H         SYMBOL        pin
  D:0005H         SYMBOL        speed
  -------         DO            
  X:061BH         SYMBOL        ADC_InitStructure
  -------         ENDDO         
  C:5569H         LINE#         27
  C:5569H         LINE#         28
  C:5569H         LINE#         30
  C:556EH         LINE#         31
  C:5571H         LINE#         32
  C:5575H         LINE#         33
  C:5578H         LINE#         34
  C:557AH         LINE#         35
  C:557CH         LINE#         36
  -------         ENDPROC       _ADC_CONFIG
  -------         PROC          GETANGLE
  B:0023H.1       SYMBOL        whichAngle
  -------         DO            
  X:05F0H         SYMBOL        angleData
  X:0604H         SYMBOL        angleDataloopTemp1
  X:0605H         SYMBOL        presentAngle
  X:0609H         SYMBOL        lastAngle
  -------         ENDDO         
  C:46BCH         LINE#         53
  C:46BCH         LINE#         54
  C:46BCH         LINE#         56
  C:46C1H         LINE#         58
  C:46C4H         LINE#         59
  C:46C4H         LINE#         61
  C:46C5H         LINE#         62
BL51 BANKED LINKER/LOCATER V6.00                                                      07/28/2017  21:19:49  PAGE 48


  C:46C5H         LINE#         63
  C:46DEH         LINE#         64
  C:46EAH         LINE#         65
  C:4710H         LINE#         67
  C:4722H         LINE#         68
  C:4727H         LINE#         69
  C:4727H         LINE#         71
  C:4727H         LINE#         72
  C:4735H         LINE#         73
  C:4735H         LINE#         74
  -------         ENDPROC       GETANGLE
  -------         ENDMOD        ANGLE

  -------         MODULE        FIXEDPULSER
  C:0000H         SYMBOL        _ICE_DUMMY_
  D:0080H         PUBLIC        P0
  D:0090H         PUBLIC        P1
  D:00A0H         PUBLIC        P2
  D:00B0H         PUBLIC        P3
  X:05C2H         SYMBOL        pulser1Tmp
  D:00C0H         PUBLIC        P4
  X:05C4H         SYMBOL        pulser2Tmp
  D:00C8H         PUBLIC        P5
  D:00E8H         PUBLIC        P6
  D:00F8H         PUBLIC        P7
  D:00A8H         PUBLIC        IE
  X:05C6H         SYMBOL        count1Tmp
  X:05C8H         SYMBOL        count2Tmp
  C:5080H         PUBLIC        PulserInit
  C:54BFH         PUBLIC        _closePulser
  D:00B8H         PUBLIC        IP
  D:00D8H         PUBLIC        CCON
  B:0022H.6       SYMBOL        timer2UseBit
  B:0022H.7       SYMBOL        timer3UseBit
  C:5467H         PUBLIC        _openPulser
  D:0098H         PUBLIC        SCON
  D:0088H         PUBLIC        TCON
  C:45C6H         SYMBOL        Pulser_1Int
  C:4641H         SYMBOL        Pulser_2Int
  D:00F0H         PUBLIC        B
  D:008EH         PUBLIC        AUXR
  C:5726H         PUBLIC        _getPulserState
  D:00E0H         PUBLIC        ACC
  D:00D6H         PUBLIC        TH2
  D:00D4H         PUBLIC        TH3
  X:05CAH         SYMBOL        tmp
  D:00D7H         PUBLIC        TL2
  D:00D5H         PUBLIC        TL3
  C:3A74H         PUBLIC        _setPulse
  D:00D1H         PUBLIC        T4T3M
  X:05CCH         SYMBOL        g_pulser
  D:008FH         PUBLIC        INT_CLKO
  D:00D0H         PUBLIC        PSW
  -------         PROC          _SETPULSE
  D:0003H         SYMBOL        pulser_num
  X:03A5H         SYMBOL        Hz
  X:03A7H         SYMBOL        count
BL51 BANKED LINKER/LOCATER V6.00                                                      07/28/2017  21:19:49  PAGE 49


  -------         DO            
  X:03ABH         SYMBOL        timerTmp
  X:03ADH         SYMBOL        TIM_Value
  -------         ENDDO         
  C:3A74H         LINE#         44
  C:3A7EH         LINE#         45
  C:3A7EH         LINE#         46
  C:3A85H         LINE#         48
  C:3AA0H         LINE#         49
  C:3ABFH         LINE#         50
  C:3AC2H         LINE#         51
  C:3AC2H         LINE#         52
  C:3AD2H         LINE#         53
  C:3AD2H         LINE#         56
  C:3AF9H         LINE#         57
  C:3AFBH         LINE#         58
  C:3AFEH         LINE#         59
  C:3B09H         LINE#         60
  C:3B0BH         LINE#         62
  C:3B0DH         LINE#         64
  C:3B0DH         LINE#         65
  C:3B0FH         LINE#         67
  C:3B0FH         LINE#         68
  C:3B11H         LINE#         70
  C:3B11H         LINE#         71
  C:3B21H         LINE#         72
  C:3B21H         LINE#         73
  C:3B48H         LINE#         74
  C:3B4AH         LINE#         75
  C:3B4DH         LINE#         76
  C:3B58H         LINE#         77
  C:3B5AH         LINE#         79
  C:3B5CH         LINE#         81
  C:3B5CH         LINE#         82
  C:3B5EH         LINE#         83
  C:3B5EH         LINE#         84
  C:3B5EH         LINE#         86
  C:3B5FH         LINE#         87
  -------         ENDPROC       _SETPULSE
  -------         PROC          _OPENPULSER
  D:0007H         SYMBOL        pulser_num
  C:5467H         LINE#         88
  C:5467H         LINE#         89
  C:5467H         LINE#         90
  C:5478H         LINE#         92
  C:547BH         LINE#         93
  C:547BH         LINE#         94
  C:547EH         LINE#         97
  C:5480H         LINE#         99
  C:5480H         LINE#         100
  C:5483H         LINE#         101
  C:5483H         LINE#         103
  C:5484H         LINE#         104
  -------         ENDPROC       _OPENPULSER
  -------         PROC          _CLOSEPULSER
  D:0007H         SYMBOL        pulser_num
  C:54BFH         LINE#         105
BL51 BANKED LINKER/LOCATER V6.00                                                      07/28/2017  21:19:49  PAGE 50


  C:54BFH         LINE#         106
  C:54BFH         LINE#         107
  C:54C2H         LINE#         108
  C:54C2H         LINE#         109
  C:54C5H         LINE#         112
  C:54C7H         LINE#         114
  C:54C7H         LINE#         115
  C:54CAH         LINE#         117
  C:54CAH         LINE#         118
  C:54DAH         LINE#         119
  C:54DBH         LINE#         121
  -------         ENDPROC       _CLOSEPULSER
  -------         PROC          _GETPULSERSTATE
  D:0007H         SYMBOL        pulser_num
  C:5726H         LINE#         122
  C:5726H         LINE#         123
  C:5726H         LINE#         125
  C:5737H         LINE#         127
  -------         ENDPROC       _GETPULSERSTATE
  -------         PROC          PULSERINIT
  -------         DO            
  X:029AH         SYMBOL        GPIO_InitStructure
  -------         ENDDO         
  C:5080H         LINE#         128
  C:5080H         LINE#         129
  C:5080H         LINE#         133
  C:5085H         LINE#         134
  C:5088H         LINE#         135
  C:5092H         LINE#         136
  C:5098H         LINE#         137
  C:50A3H         LINE#         138
  C:50A8H         LINE#         139
  C:50ACH         LINE#         143
  -------         ENDPROC       PULSERINIT
  -------         PROC          PULSER_1INT
  C:45C6H         LINE#         185
  C:45E3H         LINE#         187
  C:461AH         LINE#         188
  C:461AH         LINE#         189
  C:461FH         LINE#         190
  C:4626H         LINE#         191
  C:4626H         LINE#         193
  -------         ENDPROC       PULSER_1INT
  -------         PROC          PULSER_2INT
  C:4641H         LINE#         197
  C:465EH         LINE#         199
  C:4695H         LINE#         200
  C:4695H         LINE#         201
  C:469AH         LINE#         202
  C:46A1H         LINE#         203
  C:46A1H         LINE#         205
  -------         ENDPROC       PULSER_2INT
  -------         ENDMOD        FIXEDPULSER

  -------         MODULE        DELAY
  C:0000H         SYMBOL        _ICE_DUMMY_
  D:0080H         PUBLIC        P0
BL51 BANKED LINKER/LOCATER V6.00                                                      07/28/2017  21:19:49  PAGE 51


  D:0090H         PUBLIC        P1
  D:00A0H         PUBLIC        P2
  D:00B0H         PUBLIC        P3
  D:00C0H         PUBLIC        P4
  D:00C8H         PUBLIC        P5
  D:00E8H         PUBLIC        P6
  D:00F8H         PUBLIC        P7
  D:00A8H         PUBLIC        IE
  D:00B8H         PUBLIC        IP
  D:00D8H         PUBLIC        CCON
  D:0098H         PUBLIC        SCON
  D:0088H         PUBLIC        TCON
  D:00F0H         PUBLIC        B
  D:00E0H         PUBLIC        ACC
  C:579FH         PUBLIC        _delay_ms
  D:00D0H         PUBLIC        PSW
  -------         PROC          _DELAY_MS
  D:0007H         SYMBOL        ms
  -------         DO            
  D:0004H         SYMBOL        i
  -------         ENDDO         
  C:579FH         LINE#         26
  C:579FH         LINE#         27
  C:579FH         LINE#         30
  C:579FH         LINE#         31
  C:57A3H         LINE#         32
  C:57ACH         LINE#         33
  C:57ACH         LINE#         35
  C:57ACH         LINE#         36
  C:57ACH         LINE#         37
  C:57AEH         LINE#         38
  -------         ENDPROC       _DELAY_MS
  -------         ENDMOD        DELAY

  -------         MODULE        GPIO
  C:0000H         SYMBOL        _ICE_DUMMY_
  D:0093H         PUBLIC        P0M1
  D:0092H         PUBLIC        P1M0
  D:0096H         PUBLIC        P2M0
  D:0091H         PUBLIC        P1M1
  D:0080H         PUBLIC        P0
  D:00B2H         PUBLIC        P3M0
  D:0095H         PUBLIC        P2M1
  D:0090H         PUBLIC        P1
  D:00B4H         PUBLIC        P4M0
  D:00B1H         PUBLIC        P3M1
  D:00A0H         PUBLIC        P2
  D:00CAH         PUBLIC        P5M0
  D:00B3H         PUBLIC        P4M1
  D:00B0H         PUBLIC        P3
  D:00C9H         PUBLIC        P5M1
  D:00C0H         PUBLIC        P4
  D:00C8H         PUBLIC        P5
  D:00E8H         PUBLIC        P6
  D:00F8H         PUBLIC        P7
  D:00A8H         PUBLIC        IE
  D:00B8H         PUBLIC        IP
BL51 BANKED LINKER/LOCATER V6.00                                                      07/28/2017  21:19:49  PAGE 52


  D:00D8H         PUBLIC        CCON
  D:0098H         PUBLIC        SCON
  D:0088H         PUBLIC        TCON
  D:00F0H         PUBLIC        B
  D:00E0H         PUBLIC        ACC
  C:2DA6H         PUBLIC        _GPIO_Inilize
  D:00D0H         PUBLIC        PSW
  C:5883H         PUBLIC        _setPinState
  D:0094H         PUBLIC        P0M0
  -------         PROC          _SETPINSTATE
  D:0007H         SYMBOL        Pin
  B:0023H.2       SYMBOL        State
  C:5883H         LINE#         18
  C:5883H         LINE#         19
  C:5883H         LINE#         20
  C:5885H         LINE#         23
  -------         ENDPROC       _SETPINSTATE
  -------         PROC          _GPIO_INILIZE
  D:0007H         SYMBOL        GPIO
  D:0001H         SYMBOL        GPIOx
  C:2DA6H         LINE#         31
  C:2DA6H         LINE#         32
  C:2DA6H         LINE#         33
  C:2DACH         LINE#         34
  C:2DACH         LINE#         35
  C:2DAFH         LINE#         36
  C:2DAFH         LINE#         37
  C:2DB8H         LINE#         38
  C:2DB8H         LINE#         39
  C:2DBBH         LINE#         40
  C:2DBBH         LINE#         41
  C:2DBEH         LINE#         42
  C:2DBEH         LINE#         43
  C:2DC1H         LINE#         44
  C:2DC1H         LINE#         45
  C:2DCCH         LINE#         46
  C:2DCCH         LINE#         47
  C:2DD2H         LINE#         48
  C:2DD2H         LINE#         49
  C:2DDDH         LINE#         50
  C:2DDDH         LINE#         51
  C:2DE4H         LINE#         52
  C:2DE4H         LINE#         53
  C:2DEEH         LINE#         54
  C:2DEEH         LINE#         55
  C:2DF2H         LINE#         56
  C:2DF2H         LINE#         57
  C:2DFFH         LINE#         58
  C:2DFFH         LINE#         59
  C:2DFFH         LINE#         60
  C:2E04H         LINE#         61
  C:2E04H         LINE#         62
  C:2E0AH         LINE#         63
  C:2E0AH         LINE#         64
  C:2E15H         LINE#         65
  C:2E15H         LINE#         66
  C:2E19H         LINE#         67
BL51 BANKED LINKER/LOCATER V6.00                                                      07/28/2017  21:19:49  PAGE 53


  C:2E19H         LINE#         68
  C:2E24H         LINE#         69
  C:2E24H         LINE#         70
  C:2E2AH         LINE#         71
  C:2E2AH         LINE#         72
  C:2E34H         LINE#         73
  C:2E34H         LINE#         74
  C:2E3AH         LINE#         75
  C:2E3AH         LINE#         76
  C:2E47H         LINE#         77
  C:2E47H         LINE#         78
  C:2E47H         LINE#         79
  C:2E4CH         LINE#         80
  C:2E4CH         LINE#         81
  C:2E52H         LINE#         82
  C:2E52H         LINE#         83
  C:2E5DH         LINE#         84
  C:2E5DH         LINE#         85
  C:2E61H         LINE#         86
  C:2E61H         LINE#         87
  C:2E6CH         LINE#         88
  C:2E6CH         LINE#         89
  C:2E72H         LINE#         90
  C:2E72H         LINE#         91
  C:2E7CH         LINE#         92
  C:2E7CH         LINE#         93
  C:2E82H         LINE#         94
  C:2E82H         LINE#         95
  C:2E8FH         LINE#         96
  C:2E8FH         LINE#         97
  C:2E8FH         LINE#         98
  C:2E94H         LINE#         99
  C:2E94H         LINE#         100
  C:2E9AH         LINE#         101
  C:2E9AH         LINE#         102
  C:2EA5H         LINE#         103
  C:2EA5H         LINE#         104
  C:2EA9H         LINE#         105
  C:2EA9H         LINE#         106
  C:2EB4H         LINE#         107
  C:2EB4H         LINE#         108
  C:2EBAH         LINE#         109
  C:2EBAH         LINE#         110
  C:2EC4H         LINE#         111
  C:2EC4H         LINE#         112
  C:2ECAH         LINE#         113
  C:2ECAH         LINE#         114
  C:2ED7H         LINE#         115
  C:2ED7H         LINE#         116
  C:2ED7H         LINE#         117
  C:2EDCH         LINE#         118
  C:2EDCH         LINE#         119
  C:2EE2H         LINE#         120
  C:2EE2H         LINE#         121
  C:2EEDH         LINE#         122
  C:2EEDH         LINE#         123
  C:2EF1H         LINE#         124
BL51 BANKED LINKER/LOCATER V6.00                                                      07/28/2017  21:19:49  PAGE 54


  C:2EF1H         LINE#         125
  C:2EFCH         LINE#         126
  C:2EFCH         LINE#         127
  C:2F02H         LINE#         128
  C:2F02H         LINE#         129
  C:2F0CH         LINE#         130
  C:2F0CH         LINE#         131
  C:2F12H         LINE#         132
  C:2F12H         LINE#         133
  C:2F1FH         LINE#         134
  C:2F1FH         LINE#         135
  C:2F1FH         LINE#         136
  C:2F24H         LINE#         137
  C:2F24H         LINE#         138
  C:2F2AH         LINE#         139
  C:2F2AH         LINE#         140
  C:2F35H         LINE#         141
  C:2F35H         LINE#         142
  C:2F39H         LINE#         143
  C:2F39H         LINE#         144
  C:2F44H         LINE#         145
  C:2F44H         LINE#         146
  C:2F4AH         LINE#         147
  C:2F4AH         LINE#         148
  C:2F54H         LINE#         149
  C:2F54H         LINE#         150
  C:2F5AH         LINE#         151
  C:2F5AH         LINE#         152
  C:2F67H         LINE#         153
  C:2F67H         LINE#         154
  C:2F67H         LINE#         155
  C:2F69H         LINE#         156
  -------         ENDPROC       _GPIO_INILIZE
  -------         ENDMOD        GPIO

  -------         MODULE        STC15_PWM
  C:0000H         SYMBOL        _ICE_DUMMY_
  C:55BCH         PUBLIC        _get_PWM_period
  D:0080H         PUBLIC        P0
  C:41F8H         SYMBOL        _PWM_SET_T12_PERIOD
  D:0090H         PUBLIC        P1
  D:00A0H         PUBLIC        P2
  D:00B0H         PUBLIC        P3
  D:00C0H         PUBLIC        P4
  D:00C8H         PUBLIC        P5
  D:00E8H         PUBLIC        P6
  D:00F8H         PUBLIC        P7
  C:577DH         PUBLIC        _setPWM_DIV
  C:49ACH         PUBLIC        _set_PWM_period
  D:00F5H         PUBLIC        PWMCR
  D:00BAH         PUBLIC        P_SW2
  D:00A8H         PUBLIC        IE
  D:00F7H         PUBLIC        PWMFDCR
  D:00B8H         PUBLIC        IP
  C:5285H         PUBLIC        _close_PWM_N
  D:00D8H         PUBLIC        CCON
  C:5825H         PUBLIC        close_PWM_ALL
BL51 BANKED LINKER/LOCATER V6.00                                                      07/28/2017  21:19:49  PAGE 55


  C:1DD0H         PUBLIC        _PWM_Inilize
  X:04B4H         SYMBOL        PWM_N_INFO
  D:0098H         PUBLIC        SCON
  D:0088H         PUBLIC        TCON
  C:5100H         PUBLIC        _open_PWM_N
  D:00F0H         PUBLIC        B
  C:581BH         PUBLIC        open_PWM_ALL
  D:00F1H         PUBLIC        PWMCFG
  D:00E0H         PUBLIC        ACC
  C:5738H         PUBLIC        _get_PWM_N_state
  C:3B60H         PUBLIC        _set_PWM_duty
  C:5392H         SYMBOL        _PWM_SET_PERIOD
  C:55D6H         PUBLIC        _get_PWM_N_duty
  D:00D0H         PUBLIC        PSW
  C:578EH         PUBLIC        _getPWM_DIV
  -------         PROC          _SET_PWM_PERIOD
  D:0003H         SYMBOL        PWM_N
  X:0643H         SYMBOL        Hz
  C:49ACH         LINE#         52
  C:49B6H         LINE#         53
  C:49B6H         LINE#         54
  C:49D2H         LINE#         55
  C:49D5H         LINE#         56
  C:49D8H         LINE#         57
  C:4A09H         LINE#         60
  C:4A0CH         LINE#         63
  -------         ENDPROC       _SET_PWM_PERIOD
  -------         PROC          _GET_PWM_PERIOD
  D:0007H         SYMBOL        PWM_N
  C:55BCH         LINE#         73
  C:55BCH         LINE#         74
  C:55BCH         LINE#         75
  C:55D5H         LINE#         76
  -------         ENDPROC       _GET_PWM_PERIOD
  -------         PROC          _SET_PWM_DUTY
  X:0630H         SYMBOL        PWM_N
  X:0631H         SYMBOL        duty
  C:3B60H         LINE#         90
  C:3B65H         LINE#         91
  C:3B65H         LINE#         92
  C:3B80H         LINE#         93
  C:3B80H         LINE#         94
  C:3B8AH         LINE#         95
  C:3B8AH         LINE#         96
  C:3BA5H         LINE#         97
  C:3BA5H         LINE#         98
  C:3BAFH         LINE#         99
  C:3BAFH         LINE#         100
  C:3BD2H         LINE#         101
  C:3BD5H         LINE#         102
  C:3C40H         LINE#         105
  C:3C43H         LINE#         106
  -------         ENDPROC       _SET_PWM_DUTY
  -------         PROC          _GET_PWM_N_DUTY
  D:0007H         SYMBOL        PWM_N
  C:55D6H         LINE#         115
  C:55D6H         LINE#         116
BL51 BANKED LINKER/LOCATER V6.00                                                      07/28/2017  21:19:49  PAGE 56


  C:55D6H         LINE#         117
  C:55EFH         LINE#         118
  -------         ENDPROC       _GET_PWM_N_DUTY
  -------         PROC          _SETPWM_DIV
  D:0007H         SYMBOL        PWM_N
  D:0005H         SYMBOL        DIV
  C:577DH         LINE#         129
  C:577DH         LINE#         130
  C:577DH         LINE#         131
  C:578DH         LINE#         132
  -------         ENDPROC       _SETPWM_DIV
  -------         PROC          _GETPWM_DIV
  D:0007H         SYMBOL        PWM_N
  C:578EH         LINE#         141
  C:578EH         LINE#         142
  C:578EH         LINE#         143
  C:579EH         LINE#         144
  -------         ENDPROC       _GETPWM_DIV
  -------         PROC          OPEN_PWM_ALL
  C:581BH         LINE#         153
  C:581BH         LINE#         154
  C:581BH         LINE#         155
  C:581EH         LINE#         156
  C:5821H         LINE#         157
  C:5824H         LINE#         158
  -------         ENDPROC       OPEN_PWM_ALL
  -------         PROC          CLOSE_PWM_ALL
  C:5825H         LINE#         167
  C:5825H         LINE#         168
  C:5825H         LINE#         169
  C:5828H         LINE#         170
  C:582BH         LINE#         171
  C:582EH         LINE#         173
  -------         ENDPROC       CLOSE_PWM_ALL
  -------         PROC          _OPEN_PWM_N
  D:0007H         SYMBOL        PWM_N
  C:5100H         LINE#         182
  C:5100H         LINE#         183
  C:5100H         LINE#         184
  C:5103H         LINE#         185
  C:5110H         LINE#         186
  C:5121H         LINE#         187
  C:5124H         LINE#         188
  C:5127H         LINE#         191
  -------         ENDPROC       _OPEN_PWM_N
  -------         PROC          _CLOSE_PWM_N
  D:0007H         SYMBOL        PWM_N
  C:5285H         LINE#         200
  C:5285H         LINE#         201
  C:5285H         LINE#         202
  C:5288H         LINE#         203
  C:5296H         LINE#         204
  C:52A6H         LINE#         205
  C:52A9H         LINE#         207
  -------         ENDPROC       _CLOSE_PWM_N
  -------         PROC          _GET_PWM_N_STATE
  D:0007H         SYMBOL        PWM_N
BL51 BANKED LINKER/LOCATER V6.00                                                      07/28/2017  21:19:49  PAGE 57


  C:5738H         LINE#         216
  C:5738H         LINE#         217
  C:5738H         LINE#         219
  C:5749H         LINE#         220
  -------         ENDPROC       _GET_PWM_N_STATE
  -------         PROC          _PWM_INILIZE
  X:0645H         SYMBOL        PWM_N
  D:0001H         SYMBOL        PWMx
  -------         DO            
  X:0646H         SYMBOL        i
  -------         ENDDO         
  C:1DD0H         LINE#         228
  C:1DD5H         LINE#         229
  C:1DD5H         LINE#         230
  C:1DD8H         LINE#         231
  C:1DE2H         LINE#         232
  C:1DE2H         LINE#         233
  C:1DF7H         LINE#         234
  C:1E0BH         LINE#         235
  C:1E20H         LINE#         236
  C:1E34H         LINE#         237
  C:1E3CH         LINE#         239
  C:1E3FH         LINE#         240
  C:1E45H         LINE#         241
  C:1E45H         LINE#         242
  C:1E48H         LINE#         243
  C:1E4AH         LINE#         245
  C:1E4AH         LINE#         246
  C:1E4DH         LINE#         247
  C:1E4DH         LINE#         248
  C:1E56H         LINE#         249
  C:1E56H         LINE#         250
  C:1E68H         LINE#         251
  C:1E6AH         LINE#         253
  C:1E6AH         LINE#         254
  C:1E7DH         LINE#         255
  C:1E7DH         LINE#         256
  C:1E86H         LINE#         257
  C:1E86H         LINE#         258
  C:1E89H         LINE#         259
  C:1E8BH         LINE#         261
  C:1E8BH         LINE#         262
  C:1E8EH         LINE#         263
  C:1E8EH         LINE#         264
  C:1E97H         LINE#         265
  C:1E97H         LINE#         266
  C:1EA9H         LINE#         267
  C:1EABH         LINE#         269
  C:1EABH         LINE#         270
  C:1EBEH         LINE#         271
  C:1EBEH         LINE#         272
  C:1EC7H         LINE#         273
  C:1EC7H         LINE#         274
  C:1ECAH         LINE#         275
  C:1ECCH         LINE#         277
  C:1ECCH         LINE#         278
  C:1ECFH         LINE#         279
BL51 BANKED LINKER/LOCATER V6.00                                                      07/28/2017  21:19:49  PAGE 58


  C:1ECFH         LINE#         280
  C:1ED8H         LINE#         281
  C:1ED8H         LINE#         282
  C:1EDBH         LINE#         283
  C:1EDDH         LINE#         285
  C:1EDDH         LINE#         286
  C:1EE0H         LINE#         287
  C:1EE0H         LINE#         288
  C:1EE9H         LINE#         289
  C:1EE9H         LINE#         290
  C:1EECH         LINE#         291
  C:1EEEH         LINE#         293
  C:1EEEH         LINE#         294
  C:1EF1H         LINE#         295
  C:1EF1H         LINE#         296
  C:1EFAH         LINE#         297
  C:1EFAH         LINE#         298
  C:1EFDH         LINE#         299
  C:1EFFH         LINE#         301
  C:1EFFH         LINE#         302
  C:1F02H         LINE#         303
  C:1F02H         LINE#         304
  C:1F0BH         LINE#         305
  C:1F0BH         LINE#         306
  C:1F0EH         LINE#         307
  C:1F10H         LINE#         309
  C:1F10H         LINE#         310
  C:1F13H         LINE#         311
  C:1F13H         LINE#         313
  C:1F1EH         LINE#         314
  C:1F1EH         LINE#         315
  C:1F22H         LINE#         316
  C:1F24H         LINE#         318
  C:1F24H         LINE#         319
  C:1F28H         LINE#         320
  C:1F28H         LINE#         322
  C:1F3FH         LINE#         323
  C:1F65H         LINE#         324
  C:1F65H         LINE#         325
  C:1F65H         LINE#         326
  C:1F65H         LINE#         327
  C:1F70H         LINE#         328
  C:1F70H         LINE#         329
  C:1F74H         LINE#         330
  C:1F76H         LINE#         332
  C:1F76H         LINE#         333
  C:1F7AH         LINE#         334
  C:1F7AH         LINE#         335
  C:1F86H         LINE#         336
  C:1F86H         LINE#         337
  C:1F8AH         LINE#         338
  C:1F8CH         LINE#         340
  C:1F8CH         LINE#         341
  C:1F90H         LINE#         342
  C:1F90H         LINE#         343
  C:1F9CH         LINE#         344
  C:1F9CH         LINE#         345
BL51 BANKED LINKER/LOCATER V6.00                                                      07/28/2017  21:19:49  PAGE 59


  C:1FA0H         LINE#         346
  C:1FA2H         LINE#         348
  C:1FA2H         LINE#         349
  C:1FA6H         LINE#         350
  C:1FA6H         LINE#         351
  C:1FB2H         LINE#         352
  C:1FB2H         LINE#         353
  C:1FB2H         LINE#         354
  C:1FB5H         LINE#         356
  C:1FB5H         LINE#         357
  C:1FB5H         LINE#         358
  C:1FB5H         LINE#         359
  C:1FB5H         LINE#         360
  C:1FB8H         LINE#         361
  C:1FB8H         LINE#         362
  C:1FB8H         LINE#         363
  C:1FC3H         LINE#         364
  C:1FC3H         LINE#         365
  C:1FC7H         LINE#         366
  C:1FC9H         LINE#         368
  C:1FC9H         LINE#         369
  C:1FCDH         LINE#         370
  C:1FCDH         LINE#         371
  C:1FD9H         LINE#         372
  C:1FD9H         LINE#         373
  C:1FDDH         LINE#         374
  C:1FDFH         LINE#         376
  C:1FDFH         LINE#         377
  C:1FE3H         LINE#         378
  C:1FE3H         LINE#         379
  C:1FEFH         LINE#         380
  C:1FEFH         LINE#         381
  C:1FF3H         LINE#         382
  C:1FF5H         LINE#         384
  C:1FF5H         LINE#         385
  C:1FF9H         LINE#         386
  C:1FF9H         LINE#         387
  C:2005H         LINE#         388
  C:2005H         LINE#         389
  C:2005H         LINE#         390
  C:2008H         LINE#         392
  C:2008H         LINE#         393
  C:2008H         LINE#         394
  C:2008H         LINE#         395
  C:2008H         LINE#         396
  C:200BH         LINE#         397
  C:200BH         LINE#         398
  C:200BH         LINE#         399
  C:2016H         LINE#         400
  C:2016H         LINE#         401
  C:201AH         LINE#         402
  C:201CH         LINE#         404
  C:201CH         LINE#         405
  C:2020H         LINE#         406
  C:2020H         LINE#         407
  C:202CH         LINE#         408
  C:202CH         LINE#         409
BL51 BANKED LINKER/LOCATER V6.00                                                      07/28/2017  21:19:49  PAGE 60


  C:2030H         LINE#         410
  C:2032H         LINE#         412
  C:2032H         LINE#         413
  C:2036H         LINE#         414
  C:2036H         LINE#         415
  C:2042H         LINE#         416
  C:2042H         LINE#         417
  C:2046H         LINE#         418
  C:2048H         LINE#         420
  C:2048H         LINE#         421
  C:204CH         LINE#         422
  C:204CH         LINE#         423
  C:2058H         LINE#         424
  C:2058H         LINE#         425
  C:2058H         LINE#         426
  C:205BH         LINE#         428
  C:205BH         LINE#         429
  C:205BH         LINE#         430
  C:205BH         LINE#         431
  C:205BH         LINE#         432
  C:205EH         LINE#         433
  C:205EH         LINE#         434
  C:205EH         LINE#         435
  C:2069H         LINE#         436
  C:2069H         LINE#         437
  C:206DH         LINE#         438
  C:206FH         LINE#         440
  C:206FH         LINE#         441
  C:2073H         LINE#         442
  C:2073H         LINE#         443
  C:207FH         LINE#         444
  C:207FH         LINE#         445
  C:2083H         LINE#         446
  C:2085H         LINE#         448
  C:2085H         LINE#         449
  C:2089H         LINE#         450
  C:2089H         LINE#         451
  C:2095H         LINE#         452
  C:2095H         LINE#         453
  C:2099H         LINE#         454
  C:209BH         LINE#         456
  C:209BH         LINE#         457
  C:209FH         LINE#         458
  C:209FH         LINE#         459
  C:20ABH         LINE#         460
  C:20ABH         LINE#         461
  C:20ABH         LINE#         462
  C:20AEH         LINE#         464
  C:20AEH         LINE#         465
  C:20AEH         LINE#         466
  C:20AEH         LINE#         467
  C:20AEH         LINE#         468
  C:20B1H         LINE#         469
  C:20B1H         LINE#         470
  C:20B1H         LINE#         471
  C:20BCH         LINE#         472
  C:20BCH         LINE#         473
BL51 BANKED LINKER/LOCATER V6.00                                                      07/28/2017  21:19:49  PAGE 61


  C:20C0H         LINE#         474
  C:20C2H         LINE#         476
  C:20C2H         LINE#         477
  C:20C6H         LINE#         478
  C:20C6H         LINE#         479
  C:20D2H         LINE#         480
  C:20D2H         LINE#         481
  C:20D6H         LINE#         482
  C:20D8H         LINE#         484
  C:20D8H         LINE#         485
  C:20DCH         LINE#         486
  C:20DCH         LINE#         487
  C:20E8H         LINE#         488
  C:20E8H         LINE#         489
  C:20ECH         LINE#         490
  C:20EEH         LINE#         492
  C:20EEH         LINE#         493
  C:20F2H         LINE#         494
  C:20F2H         LINE#         495
  C:20FEH         LINE#         496
  C:20FEH         LINE#         497
  C:20FEH         LINE#         498
  C:2100H         LINE#         500
  C:2100H         LINE#         501
  C:2100H         LINE#         502
  C:2100H         LINE#         503
  C:2100H         LINE#         504
  C:2102H         LINE#         505
  C:2102H         LINE#         506
  C:2102H         LINE#         507
  C:210DH         LINE#         508
  C:210DH         LINE#         509
  C:2111H         LINE#         510
  C:2113H         LINE#         512
  C:2113H         LINE#         513
  C:2117H         LINE#         514
  C:2117H         LINE#         515
  C:2123H         LINE#         516
  C:2123H         LINE#         517
  C:2127H         LINE#         518
  C:2129H         LINE#         520
  C:2129H         LINE#         521
  C:212DH         LINE#         522
  C:212DH         LINE#         523
  C:2139H         LINE#         524
  C:2139H         LINE#         525
  C:213DH         LINE#         526
  C:213FH         LINE#         528
  C:213FH         LINE#         529
  C:2143H         LINE#         530
  C:2143H         LINE#         531
  C:214FH         LINE#         532
  C:214FH         LINE#         533
  C:2153H         LINE#         534
  C:2155H         LINE#         536
  C:2155H         LINE#         537
  C:2159H         LINE#         538
BL51 BANKED LINKER/LOCATER V6.00                                                      07/28/2017  21:19:49  PAGE 62


  C:2159H         LINE#         539
  C:2159H         LINE#         540
  C:2159H         LINE#         541
  C:2159H         LINE#         543
  C:2159H         LINE#         544
  C:2159H         LINE#         545
  C:2162H         LINE#         546
  C:2162H         LINE#         547
  C:2165H         LINE#         548
  C:2166H         LINE#         550
  C:2166H         LINE#         551
  C:2169H         LINE#         552
  C:2169H         LINE#         553
  -------         ENDPROC       _PWM_INILIZE
  -------         PROC          _PWM_SET_PERIOD
  D:0006H         SYMBOL        period
  C:5392H         LINE#         564
  C:5392H         LINE#         565
  C:5392H         LINE#         566
  C:539DH         LINE#         567
  C:539DH         LINE#         568
  C:539FH         LINE#         569
  C:53A4H         LINE#         570
  C:53A7H         LINE#         571
  C:53A7H         LINE#         573
  C:53A7H         LINE#         574
  C:53AAH         LINE#         575
  C:53B0H         LINE#         576
  C:53B0H         LINE#         577
  -------         ENDPROC       _PWM_SET_PERIOD
  -------         PROC          _PWM_SET_T12_PERIOD
  D:0007H         SYMBOL        PWM_N
  D:0004H         SYMBOL        period1
  D:0002H         SYMBOL        period2
  C:41F8H         LINE#         590
  C:41F8H         LINE#         591
  C:41F8H         LINE#         592
  C:420FH         LINE#         593
  C:420FH         LINE#         594
  C:420FH         LINE#         595
  C:4214H         LINE#         596
  C:4219H         LINE#         597
  C:421EH         LINE#         598
  C:4222H         LINE#         599
  C:4224H         LINE#         600
  C:4224H         LINE#         601
  C:4224H         LINE#         602
  C:4229H         LINE#         603
  C:422EH         LINE#         604
  C:4233H         LINE#         605
  C:4237H         LINE#         606
  C:4239H         LINE#         607
  C:4239H         LINE#         608
  C:4239H         LINE#         609
  C:423EH         LINE#         610
  C:4243H         LINE#         611
  C:4248H         LINE#         612
BL51 BANKED LINKER/LOCATER V6.00                                                      07/28/2017  21:19:49  PAGE 63


  C:424CH         LINE#         613
  C:424EH         LINE#         614
  C:424EH         LINE#         615
  C:424EH         LINE#         616
  C:4253H         LINE#         617
  C:4258H         LINE#         618
  C:425DH         LINE#         619
  C:4261H         LINE#         620
  C:4263H         LINE#         621
  C:4263H         LINE#         622
  C:4263H         LINE#         623
  C:4268H         LINE#         624
  C:426DH         LINE#         625
  C:4272H         LINE#         626
  C:4276H         LINE#         627
  C:4278H         LINE#         628
  C:4278H         LINE#         629
  C:4278H         LINE#         630
  C:427DH         LINE#         631
  C:4282H         LINE#         632
  C:4287H         LINE#         633
  C:428CH         LINE#         634
  C:428FH         LINE#         635
  C:428FH         LINE#         636
  C:428FH         LINE#         637
  C:4291H         LINE#         638
  C:4291H         LINE#         639
  C:4291H         LINE#         640
  -------         ENDPROC       _PWM_SET_T12_PERIOD
  -------         ENDMOD        STC15_PWM

  -------         MODULE        TIMER
  C:0000H         SYMBOL        _ICE_DUMMY_
  D:0080H         PUBLIC        P0
  D:0090H         PUBLIC        P1
  D:00A0H         PUBLIC        P2
  D:00B0H         PUBLIC        P3
  D:00C0H         PUBLIC        P4
  D:00C8H         PUBLIC        P5
  D:00E8H         PUBLIC        P6
  D:00F8H         PUBLIC        P7
  X:05DAH         SYMBOL        minutes
  X:05DBH         SYMBOL        millis
  D:00A8H         PUBLIC        IE
  C:568EH         PUBLIC        _restartTimer
  X:05DDH         SYMBOL        micros
  C:585AH         PUBLIC        getSeconds
  D:00B8H         PUBLIC        IP
  C:55F0H         PUBLIC        _getTimerout
  D:00D8H         PUBLIC        CCON
  C:5860H         PUBLIC        getMinutes
  C:5838H         PUBLIC        getMillis
  X:05DFH         SYMBOL        days
  C:582FH         PUBLIC        getMicros
  X:05E0H         SYMBOL        hours
  D:0098H         PUBLIC        SCON
  D:0089H         PUBLIC        TMOD
BL51 BANKED LINKER/LOCATER V6.00                                                      07/28/2017  21:19:49  PAGE 64


  D:0088H         PUBLIC        TCON
  C:53B1H         PUBLIC        _isExpiredTimer
  X:05E1H         PUBLIC        Timer1_state
  C:52AAH         PUBLIC        _setTimeout
  X:05E2H         PUBLIC        Timer2_state
  C:4BCDH         PUBLIC        timerInit
  C:2988H         SYMBOL        _Timer_Inilize
  D:00AFH         PUBLIC        IE2
  C:53D0H         PUBLIC        _isStopped
  D:00F0H         PUBLIC        B
  D:008EH         PUBLIC        AUXR
  C:54DCH         PUBLIC        _isActiveTimer
  D:00E0H         PUBLIC        ACC
  B:00A8H.1       PUBLIC        ET0
  B:00A8H.3       PUBLIC        ET1
  D:008CH         PUBLIC        TH0
  C:57EAH         PUBLIC        _onRestartTimer
  C:57DCH         PUBLIC        _stopTimer
  D:008DH         PUBLIC        TH1
  X:05E3H         SYMBOL        Timer1_temp
  D:00D6H         PUBLIC        TH2
  X:05E5H         SYMBOL        Timer2_temp
  D:00D4H         PUBLIC        TH3
  D:00D2H         PUBLIC        TH4
  D:008AH         PUBLIC        TL0
  D:008BH         PUBLIC        TL1
  D:00D7H         PUBLIC        TL2
  D:00D5H         PUBLIC        TL3
  B:00B8H.1       PUBLIC        PT0
  D:00D3H         PUBLIC        TL4
  C:586CH         PUBLIC        getDays
  B:00B8H.3       PUBLIC        PT1
  C:5866H         PUBLIC        getHours
  B:0088H.4       PUBLIC        TR0
  C:560AH         PUBLIC        _getTimerHertz
  B:0088H.6       PUBLIC        TR1
  D:00D1H         PUBLIC        T4T3M
  X:05E7H         PUBLIC        timer1_struct
  X:05EBH         PUBLIC        timer2_struct
  C:5585H         PUBLIC        _setTimerHertz
  X:05EFH         SYMBOL        seconds
  D:008FH         PUBLIC        INT_CLKO
  D:00D0H         PUBLIC        PSW
  -------         PROC          TIMERINIT
  -------         DO            
  X:028CH         SYMBOL        USER_Timer
  X:0294H         SYMBOL        Pulser_1_Timer
  X:029CH         SYMBOL        Pulser_2_Timer
  X:02A4H         SYMBOL        Error_Code
  -------         ENDDO         
  C:4BCDH         LINE#         84
  C:4BCDH         LINE#         85
  C:4BCDH         LINE#         89
  C:4BD2H         LINE#         92
  C:4BD6H         LINE#         93
  C:4BD8H         LINE#         94
  C:4BDAH         LINE#         95
BL51 BANKED LINKER/LOCATER V6.00                                                      07/28/2017  21:19:49  PAGE 65


  C:4BDCH         LINE#         96
  C:4BDEH         LINE#         97
  C:4BE2H         LINE#         98
  C:4BECH         LINE#         100
  C:4BF1H         LINE#         101
  C:4BF4H         LINE#         102
  C:4BF6H         LINE#         103
  C:4BF8H         LINE#         105
  C:4BFDH         LINE#         108
  C:4BFFH         LINE#         109
  C:4C02H         LINE#         110
  C:4C04H         LINE#         111
  C:4C06H         LINE#         113
  C:4C0BH         LINE#         115
  C:4C16H         LINE#         116
  -------         ENDPROC       TIMERINIT
  -------         PROC          _SETTIMEOUT
  D:0007H         SYMBOL        whichTimer
  D:0004H         SYMBOL        time
  C:52AAH         LINE#         173
  C:52AAH         LINE#         174
  C:52AAH         LINE#         175
  C:52B4H         LINE#         176
  C:52B4H         LINE#         177
  C:52BCH         LINE#         178
  C:52BCH         LINE#         180
  C:52BCH         LINE#         181
  C:52BCH         LINE#         182
  C:52C4H         LINE#         183
  C:52C4H         LINE#         184
  C:52C4H         LINE#         185
  C:52C4H         LINE#         186
  C:52CEH         LINE#         187
  C:52CEH         LINE#         188
  C:52CEH         LINE#         189
  C:52CEH         LINE#         190
  C:52CEH         LINE#         191
  C:52CEH         LINE#         192
  -------         ENDPROC       _SETTIMEOUT
  -------         PROC          _GETTIMEROUT
  D:0007H         SYMBOL        whichTimer
  C:55F0H         LINE#         201
  C:55F0H         LINE#         202
  C:55F0H         LINE#         203
  C:55F8H         LINE#         204
  C:55F8H         LINE#         206
  C:55F8H         LINE#         207
  C:55F8H         LINE#         208
  C:55FDH         LINE#         209
  C:55FDH         LINE#         210
  C:55FDH         LINE#         211
  C:55FDH         LINE#         212
  C:55FDH         LINE#         213
  C:5606H         LINE#         214
  C:5606H         LINE#         215
  C:5606H         LINE#         217
  C:5609H         LINE#         218
BL51 BANKED LINKER/LOCATER V6.00                                                      07/28/2017  21:19:49  PAGE 66


  C:5609H         LINE#         220
  -------         ENDPROC       _GETTIMEROUT
  -------         PROC          _SETTIMERHERTZ
  D:0007H         SYMBOL        whichTimer
  D:0004H         SYMBOL        Hz
  C:5585H         LINE#         231
  C:5585H         LINE#         232
  C:5585H         LINE#         233
  C:558DH         LINE#         234
  C:558DH         LINE#         236
  C:558DH         LINE#         237
  C:558DH         LINE#         238
  C:5595H         LINE#         239
  C:5595H         LINE#         240
  C:5596H         LINE#         241
  C:5596H         LINE#         242
  C:5596H         LINE#         243
  C:55A0H         LINE#         244
  C:55A0H         LINE#         245
  C:55A0H         LINE#         247
  C:55A0H         LINE#         250
  -------         ENDPROC       _SETTIMERHERTZ
  -------         PROC          _GETTIMERHERTZ
  D:0007H         SYMBOL        whichTimer
  C:560AH         LINE#         251
  C:560AH         LINE#         252
  C:560AH         LINE#         253
  C:5612H         LINE#         254
  C:5612H         LINE#         256
  C:5612H         LINE#         257
  C:5612H         LINE#         258
  C:5612H         LINE#         259
  C:5617H         LINE#         260
  C:5617H         LINE#         261
  C:5617H         LINE#         262
  C:5617H         LINE#         263
  C:5617H         LINE#         264
  C:5620H         LINE#         265
  C:5620H         LINE#         266
  C:5620H         LINE#         267
  C:5623H         LINE#         268
  C:5623H         LINE#         269
  -------         ENDPROC       _GETTIMERHERTZ
  -------         PROC          _STOPTIMER
  D:0007H         SYMBOL        whichTimer
  C:57DCH         LINE#         279
  C:57DCH         LINE#         280
  C:57DCH         LINE#         281
  C:57E0H         LINE#         282
  C:57E0H         LINE#         283
  C:57E0H         LINE#         284
  C:57E0H         LINE#         285
  C:57E3H         LINE#         286
  C:57E9H         LINE#         288
  C:57E9H         LINE#         289
  C:57E9H         LINE#         290
  C:57E9H         LINE#         291
BL51 BANKED LINKER/LOCATER V6.00                                                      07/28/2017  21:19:49  PAGE 67


  C:57E9H         LINE#         295
  C:57E9H         LINE#         296
  C:57E9H         LINE#         297
  C:57E9H         LINE#         299
  -------         ENDPROC       _STOPTIMER
  -------         PROC          _ISACTIVETIMER
  D:0007H         SYMBOL        whichTimer
  C:54DCH         LINE#         309
  C:54DCH         LINE#         310
  C:54DCH         LINE#         311
  C:54E4H         LINE#         312
  C:54E4H         LINE#         313
  C:54E4H         LINE#         314
  C:54E4H         LINE#         315
  C:54EEH         LINE#         317
  C:54EEH         LINE#         318
  C:54EEH         LINE#         319
  C:54EEH         LINE#         320
  C:54F8H         LINE#         322
  C:54F8H         LINE#         323
  C:54F8H         LINE#         324
  C:54F8H         LINE#         325
  -------         ENDPROC       _ISACTIVETIMER
  -------         PROC          _ISEXPIREDTIMER
  D:0007H         SYMBOL        whichTimer
  C:53B1H         LINE#         335
  C:53B1H         LINE#         336
  C:53B1H         LINE#         337
  C:53B9H         LINE#         338
  C:53B9H         LINE#         339
  C:53B9H         LINE#         340
  C:53B9H         LINE#         341
  C:53C4H         LINE#         342
  C:53C4H         LINE#         343
  C:53C4H         LINE#         344
  C:53C4H         LINE#         345
  C:53CFH         LINE#         346
  C:53CFH         LINE#         347
  C:53CFH         LINE#         348
  C:53CFH         LINE#         351
  -------         ENDPROC       _ISEXPIREDTIMER
  -------         PROC          _ISSTOPPED
  D:0007H         SYMBOL        whichtimer
  C:53D0H         LINE#         361
  C:53D0H         LINE#         362
  C:53D0H         LINE#         363
  C:53D8H         LINE#         364
  C:53D8H         LINE#         365
  C:53D8H         LINE#         366
  C:53D8H         LINE#         367
  C:53E3H         LINE#         368
  C:53E3H         LINE#         369
  C:53E3H         LINE#         370
  C:53E3H         LINE#         371
  C:53EEH         LINE#         372
  C:53EEH         LINE#         373
  C:53EEH         LINE#         374
BL51 BANKED LINKER/LOCATER V6.00                                                      07/28/2017  21:19:49  PAGE 68


  C:53EEH         LINE#         375
  -------         ENDPROC       _ISSTOPPED
  -------         PROC          _RESTARTTIMER
  D:0006H         SYMBOL        whichTimer
  C:568EH         LINE#         386
  C:5690H         LINE#         387
  C:5690H         LINE#         388
  C:5695H         LINE#         389
  C:5695H         LINE#         390
  C:5699H         LINE#         391
  C:5699H         LINE#         392
  C:5699H         LINE#         393
  C:5699H         LINE#         394
  C:569CH         LINE#         395
  C:56A1H         LINE#         396
  C:56A1H         LINE#         397
  C:56A1H         LINE#         398
  C:56A1H         LINE#         399
  C:56A1H         LINE#         402
  C:56A1H         LINE#         403
  C:56A1H         LINE#         404
  C:56A1H         LINE#         405
  C:56A1H         LINE#         406
  C:56A1H         LINE#         410
  C:56A1H         LINE#         411
  -------         ENDPROC       _RESTARTTIMER
  -------         PROC          _ONRESTARTTIMER
  D:0006H         SYMBOL        whichTimer
  C:57EAH         LINE#         421
  C:57ECH         LINE#         422
  C:57ECH         LINE#         423
  C:57F1H         LINE#         424
  C:57F1H         LINE#         425
  C:57F4H         LINE#         426
  C:57F6H         LINE#         427
  C:57F6H         LINE#         429
  C:57F6H         LINE#         430
  C:57F7H         LINE#         431
  C:57F7H         LINE#         433
  -------         ENDPROC       _ONRESTARTTIMER
  -------         PROC          GETMICROS
  C:582FH         LINE#         437
  C:582FH         LINE#         438
  C:582FH         LINE#         440
  C:5837H         LINE#         441
  -------         ENDPROC       GETMICROS
  -------         PROC          GETMILLIS
  C:5838H         LINE#         443
  C:5838H         LINE#         444
  C:5838H         LINE#         445
  C:5840H         LINE#         446
  -------         ENDPROC       GETMILLIS
  -------         PROC          GETSECONDS
  C:585AH         LINE#         447
  C:585AH         LINE#         448
  C:585AH         LINE#         449
  C:585FH         LINE#         450
BL51 BANKED LINKER/LOCATER V6.00                                                      07/28/2017  21:19:49  PAGE 69


  -------         ENDPROC       GETSECONDS
  -------         PROC          GETMINUTES
  C:5860H         LINE#         451
  C:5860H         LINE#         452
  C:5860H         LINE#         453
  C:5865H         LINE#         454
  -------         ENDPROC       GETMINUTES
  -------         PROC          GETHOURS
  C:5866H         LINE#         455
  C:5866H         LINE#         456
  C:5866H         LINE#         457
  C:586BH         LINE#         458
  -------         ENDPROC       GETHOURS
  -------         PROC          GETDAYS
  C:586CH         LINE#         459
  C:586CH         LINE#         460
  C:586CH         LINE#         461
  C:5871H         LINE#         462
  -------         ENDPROC       GETDAYS
  -------         PROC          _TIMER_INILIZE
  D:0005H         SYMBOL        TIM
  D:0001H         SYMBOL        TIMx
  C:2988H         LINE#         553
  C:298AH         LINE#         554
  C:298AH         LINE#         555
  C:2993H         LINE#         557
  C:2996H         LINE#         558
  C:2996H         LINE#         559
  C:29A2H         LINE#         560
  C:29A4H         LINE#         561
  C:29A6H         LINE#         562
  C:29A8H         LINE#         563
  C:29ABH         LINE#         564
  C:29AEH         LINE#         565
  C:29B1H         LINE#         566
  C:29BCH         LINE#         567
  C:29C7H         LINE#         568
  C:29CAH         LINE#         569
  C:29D6H         LINE#         570
  C:29DDH         LINE#         571
  C:29E9H         LINE#         573
  C:29F3H         LINE#         574
  C:29FBH         LINE#         575
  C:2A06H         LINE#         576
  C:2A09H         LINE#         577
  C:2A09H         LINE#         579
  C:2A11H         LINE#         580
  C:2A11H         LINE#         581
  C:2A13H         LINE#         582
  C:2A20H         LINE#         583
  C:2A22H         LINE#         584
  C:2A2FH         LINE#         585
  C:2A31H         LINE#         586
  C:2A3DH         LINE#         587
  C:2A44H         LINE#         588
  C:2A51H         LINE#         589
  C:2A57H         LINE#         590
BL51 BANKED LINKER/LOCATER V6.00                                                      07/28/2017  21:19:49  PAGE 70


  C:2A60H         LINE#         591
  C:2A63H         LINE#         592
  C:2A71H         LINE#         593
  C:2A74H         LINE#         595
  C:2A7EH         LINE#         596
  C:2A86H         LINE#         597
  C:2A91H         LINE#         598
  C:2A94H         LINE#         599
  C:2A94H         LINE#         601
  C:2A99H         LINE#         602
  C:2A99H         LINE#         603
  C:2A9CH         LINE#         604
  C:2AAAH         LINE#         605
  C:2AADH         LINE#         606
  C:2ABCH         LINE#         607
  C:2AC3H         LINE#         608
  C:2ACEH         LINE#         609
  C:2ADCH         LINE#         610
  C:2ADFH         LINE#         611
  C:2AEDH         LINE#         612
  C:2AF0H         LINE#         614
  C:2AFAH         LINE#         615
  C:2B02H         LINE#         616
  C:2B0EH         LINE#         617
  C:2B11H         LINE#         618
  C:2B11H         LINE#         620
  C:2B16H         LINE#         621
  C:2B16H         LINE#         622
  C:2B25H         LINE#         623
  C:2B28H         LINE#         624
  C:2B2BH         LINE#         625
  C:2B37H         LINE#         626
  C:2B3DH         LINE#         627
  C:2B49H         LINE#         628
  C:2B55H         LINE#         630
  C:2B5FH         LINE#         631
  C:2B67H         LINE#         632
  C:2B73H         LINE#         633
  C:2B76H         LINE#         634
  C:2B76H         LINE#         636
  C:2B7BH         LINE#         637
  C:2B7BH         LINE#         638
  C:2B8AH         LINE#         639
  C:2B8DH         LINE#         640
  C:2B90H         LINE#         641
  C:2B9CH         LINE#         642
  C:2BA2H         LINE#         643
  C:2BAEH         LINE#         645
  C:2BBAH         LINE#         646
  C:2BBCH         LINE#         647
  C:2BC8H         LINE#         648
  C:2BD4H         LINE#         650
  C:2BD7H         LINE#         651
  C:2BD7H         LINE#         653
  C:2BD9H         LINE#         654
  -------         ENDPROC       _TIMER_INILIZE
  -------         ENDMOD        TIMER
BL51 BANKED LINKER/LOCATER V6.00                                                      07/28/2017  21:19:49  PAGE 71



  -------         MODULE        USART1
  C:0000H         SYMBOL        _ICE_DUMMY_
  D:0080H         PUBLIC        P0
  D:0090H         PUBLIC        P1
  D:00A0H         PUBLIC        P2
  D:00B0H         PUBLIC        P3
  D:00C0H         PUBLIC        P4
  D:00C8H         PUBLIC        P5
  B:00A8H.7       PUBLIC        EA
  D:00E8H         PUBLIC        P6
  D:00F8H         PUBLIC        P7
  D:00A2H         PUBLIC        P_SW1
  D:00BAH         PUBLIC        P_SW2
  D:00A8H         PUBLIC        IE
  X:0000H         PUBLIC        COM1
  X:0007H         PUBLIC        COM2
  X:000EH         PUBLIC        COM3
  X:0015H         PUBLIC        COM4
  B:00A8H.4       PUBLIC        ES
  D:00B8H         PUBLIC        IP
  X:001CH         PUBLIC        RX1_Buffer
  X:009CH         PUBLIC        RX2_Buffer
  B:0098H.0       PUBLIC        RI
  C:4547H         PUBLIC        UART1_int
  X:011CH         PUBLIC        RX3_Buffer
  X:0138H         PUBLIC        TX1_Buffer
  C:43B8H         PUBLIC        UART2_int
  X:01B8H         PUBLIC        RX4_Buffer
  X:01D4H         PUBLIC        TX2_Buffer
  B:0098H.1       PUBLIC        TI
  C:443DH         PUBLIC        UART3_int
  X:0254H         PUBLIC        TX3_Buffer
  C:44C2H         PUBLIC        UART4_int
  X:0270H         PUBLIC        TX4_Buffer
  B:00B8H.4       PUBLIC        PS
  D:00D8H         PUBLIC        CCON
  D:0099H         PUBLIC        SBUF
  D:0087H         PUBLIC        PCON
  D:0098H         PUBLIC        SCON
  D:0089H         PUBLIC        TMOD
  D:0088H         PUBLIC        TCON
  C:563BH         PUBLIC        _PrintString1
  C:56DBH         PUBLIC        _PrintString2
  C:56EEH         PUBLIC        _PrintString3
  C:5701H         PUBLIC        _PrintString4
  D:00AFH         PUBLIC        IE2
  D:00F0H         PUBLIC        B
  D:008EH         PUBLIC        AUXR
  C:51C7H         PUBLIC        _TX1_write2buff
  C:5128H         PUBLIC        _TX2_write2buff
  C:5150H         PUBLIC        _TX3_write2buff
  D:00E0H         PUBLIC        ACC
  C:5178H         PUBLIC        _TX4_write2buff
  B:00A8H.3       PUBLIC        ET1
  D:00B5H         PUBLIC        IP2
  D:008DH         PUBLIC        TH1
BL51 BANKED LINKER/LOCATER V6.00                                                      07/28/2017  21:19:49  PAGE 72


  D:00D6H         PUBLIC        TH2
  D:00D4H         PUBLIC        TH3
  D:00D2H         PUBLIC        TH4
  D:008BH         PUBLIC        TL1
  D:00D7H         PUBLIC        TL2
  C:126DH         PUBLIC        _USART_Configuration
  D:00D5H         PUBLIC        TL3
  D:00D3H         PUBLIC        TL4
  B:0088H.6       PUBLIC        TR1
  D:00D1H         PUBLIC        T4T3M
  D:009BH         PUBLIC        S2BUF
  D:0097H         PUBLIC        PCON2
  D:00ADH         PUBLIC        S3BUF
  B:0098H.4       PUBLIC        REN
  D:0085H         PUBLIC        S4BUF
  D:009AH         PUBLIC        S2CON
  D:00ACH         PUBLIC        S3CON
  D:0084H         PUBLIC        S4CON
  D:008FH         PUBLIC        INT_CLKO
  D:00D0H         PUBLIC        PSW
  -------         PROC          _USART_CONFIGURATION
  X:0299H         SYMBOL        UARTx
  X:029AH         SYMBOL        COMx
  -------         DO            
  X:029DH         SYMBOL        i
  X:029EH         SYMBOL        j
  -------         ENDDO         
  C:126DH         LINE#         25
  C:127DH         LINE#         26
  C:127DH         LINE#         30
  C:1284H         LINE#         31
  C:1284H         LINE#         32
  C:1289H         LINE#         33
  C:128CH         LINE#         34
  C:128EH         LINE#         35
  C:1290H         LINE#         36
  C:1292H         LINE#         37
  C:1294H         LINE#         38
  C:1296H         LINE#         39
  C:12B8H         LINE#         40
  C:12DBH         LINE#         42
  C:12F1H         LINE#         43
  C:12FEH         LINE#         44
  C:1300H         LINE#         45
  C:130BH         LINE#         46
  C:1318H         LINE#         47
  C:1318H         LINE#         48
  C:132FH         LINE#         49
  C:134CH         LINE#         50
  C:136EH         LINE#         51
  C:1384H         LINE#         52
  C:1384H         LINE#         53
  C:1386H         LINE#         54
  C:1389H         LINE#         55
  C:138CH         LINE#         56
  C:138FH         LINE#         57
  C:1392H         LINE#         58
BL51 BANKED LINKER/LOCATER V6.00                                                      07/28/2017  21:19:49  PAGE 73


  C:13A7H         LINE#         59
  C:13B0H         LINE#         60
  C:13B2H         LINE#         61
  C:13B5H         LINE#         62
  C:13B8H         LINE#         63
  C:13BAH         LINE#         64
  C:13BCH         LINE#         65
  C:13C1H         LINE#         66
  C:13C1H         LINE#         67
  C:13C4H         LINE#         68
  C:13C7H         LINE#         69
  C:13CAH         LINE#         70
  C:13CDH         LINE#         71
  C:13E2H         LINE#         72
  C:13EBH         LINE#         73
  C:13EEH         LINE#         74
  C:13F1H         LINE#         75
  C:13F4H         LINE#         76
  C:13F6H         LINE#         77
  C:13F9H         LINE#         78
  C:13F9H         LINE#         79
  C:140AH         LINE#         80
  C:140AH         LINE#         81
  C:1418H         LINE#         82
  C:141BH         LINE#         83
  C:141DH         LINE#         84
  C:1421H         LINE#         85
  C:1421H         LINE#         86
  C:142FH         LINE#         87
  C:1432H         LINE#         88
  C:1432H         LINE#         89
  C:144AH         LINE#         90
  C:144CH         LINE#         91
  C:1459H         LINE#         92
  C:145BH         LINE#         93
  C:146BH         LINE#         94
  C:1479H         LINE#         95
  C:147CH         LINE#         96
  C:147FH         LINE#         97
  C:147FH         LINE#         99
  C:148AH         LINE#         100
  C:148AH         LINE#         101
  C:1490H         LINE#         102
  C:1493H         LINE#         103
  C:1495H         LINE#         104
  C:1497H         LINE#         105
  C:1499H         LINE#         106
  C:149BH         LINE#         107
  C:149DH         LINE#         108
  C:14BFH         LINE#         109
  C:14E2H         LINE#         111
  C:14FDH         LINE#         112
  C:14FDH         LINE#         113
  C:150BH         LINE#         114
  C:150EH         LINE#         115
  C:1519H         LINE#         116
  C:151CH         LINE#         117
BL51 BANKED LINKER/LOCATER V6.00                                                      07/28/2017  21:19:49  PAGE 74


  C:1533H         LINE#         118
  C:1550H         LINE#         119
  C:1572H         LINE#         120
  C:1575H         LINE#         121
  C:1578H         LINE#         122
  C:157BH         LINE#         123
  C:1590H         LINE#         124
  C:1599H         LINE#         125
  C:159CH         LINE#         126
  C:159FH         LINE#         127
  C:15A1H         LINE#         128
  C:15A4H         LINE#         129
  C:15BDH         LINE#         130
  C:15C0H         LINE#         131
  C:15CEH         LINE#         132
  C:15D1H         LINE#         133
  C:15E1H         LINE#         134
  C:15E1H         LINE#         136
  C:15ECH         LINE#         137
  C:15ECH         LINE#         138
  C:15F2H         LINE#         139
  C:15F5H         LINE#         140
  C:15F7H         LINE#         141
  C:15F9H         LINE#         142
  C:15FBH         LINE#         143
  C:15FDH         LINE#         144
  C:15FFH         LINE#         145
  C:1621H         LINE#         146
  C:1644H         LINE#         147
  C:165FH         LINE#         148
  C:165FH         LINE#         149
  C:1662H         LINE#         150
  C:166BH         LINE#         151
  C:166EH         LINE#         152
  C:1690H         LINE#         153
  C:16ADH         LINE#         154
  C:16CFH         LINE#         155
  C:16E5H         LINE#         156
  C:16E5H         LINE#         157
  C:16E8H         LINE#         158
  C:16EBH         LINE#         159
  C:16EEH         LINE#         160
  C:16F1H         LINE#         161
  C:1706H         LINE#         162
  C:170FH         LINE#         163
  C:1712H         LINE#         164
  C:1715H         LINE#         165
  C:1717H         LINE#         166
  C:171CH         LINE#         167
  C:171CH         LINE#         168
  C:171FH         LINE#         169
  C:1722H         LINE#         170
  C:1725H         LINE#         171
  C:1728H         LINE#         172
  C:172BH         LINE#         173
  C:172EH         LINE#         174
  C:1743H         LINE#         175
BL51 BANKED LINKER/LOCATER V6.00                                                      07/28/2017  21:19:49  PAGE 75


  C:174CH         LINE#         176
  C:174FH         LINE#         177
  C:1751H         LINE#         178
  C:1754H         LINE#         179
  C:1754H         LINE#         180
  C:1757H         LINE#         181
  C:1770H         LINE#         182
  C:1773H         LINE#         183
  C:1781H         LINE#         184
  C:1784H         LINE#         185
  C:1791H         LINE#         186
  C:1794H         LINE#         188
  C:1794H         LINE#         190
  C:179FH         LINE#         191
  C:179FH         LINE#         192
  C:17A5H         LINE#         193
  C:17A8H         LINE#         194
  C:17AAH         LINE#         195
  C:17ACH         LINE#         196
  C:17AEH         LINE#         197
  C:17B0H         LINE#         198
  C:17B2H         LINE#         199
  C:17D4H         LINE#         200
  C:17F7H         LINE#         202
  C:1812H         LINE#         203
  C:1812H         LINE#         204
  C:1815H         LINE#         205
  C:181EH         LINE#         206
  C:1821H         LINE#         207
  C:1843H         LINE#         208
  C:1860H         LINE#         209
  C:1882H         LINE#         210
  C:1898H         LINE#         211
  C:1898H         LINE#         212
  C:189BH         LINE#         213
  C:189EH         LINE#         214
  C:18A1H         LINE#         215
  C:18A4H         LINE#         216
  C:18B9H         LINE#         217
  C:18C2H         LINE#         218
  C:18C5H         LINE#         219
  C:18C8H         LINE#         220
  C:18CAH         LINE#         221
  C:18CFH         LINE#         222
  C:18CFH         LINE#         223
  C:18D2H         LINE#         224
  C:18D5H         LINE#         225
  C:18D8H         LINE#         226
  C:18DBH         LINE#         227
  C:18DEH         LINE#         228
  C:18E1H         LINE#         229
  C:18F6H         LINE#         230
  C:18FFH         LINE#         231
  C:1902H         LINE#         232
  C:1904H         LINE#         233
  C:1907H         LINE#         234
  C:1907H         LINE#         235
BL51 BANKED LINKER/LOCATER V6.00                                                      07/28/2017  21:19:49  PAGE 76


  C:190AH         LINE#         236
  C:1923H         LINE#         237
  C:1926H         LINE#         238
  C:1934H         LINE#         239
  C:1937H         LINE#         240
  C:1947H         LINE#         241
  C:194AH         LINE#         242
  C:194AH         LINE#         244
  C:194CH         LINE#         245
  -------         ENDPROC       _USART_CONFIGURATION
  -------         PROC          _TX1_WRITE2BUFF
  D:0007H         SYMBOL        dat
  C:51C7H         LINE#         250
  C:51C7H         LINE#         251
  C:51C7H         LINE#         252
  C:51D6H         LINE#         253
  C:51E3H         LINE#         255
  C:51E9H         LINE#         256
  C:51E9H         LINE#         257
  C:51EBH         LINE#         258
  C:51EDH         LINE#         259
  C:51EDH         LINE#         260
  -------         ENDPROC       _TX1_WRITE2BUFF
  -------         PROC          _TX2_WRITE2BUFF
  D:0007H         SYMBOL        dat
  C:5128H         LINE#         262
  C:5128H         LINE#         263
  C:5128H         LINE#         264
  C:5137H         LINE#         265
  C:5144H         LINE#         267
  C:514AH         LINE#         268
  C:514AH         LINE#         269
  C:514CH         LINE#         270
  C:514FH         LINE#         271
  C:514FH         LINE#         272
  -------         ENDPROC       _TX2_WRITE2BUFF
  -------         PROC          _TX3_WRITE2BUFF
  D:0007H         SYMBOL        dat
  C:5150H         LINE#         274
  C:5150H         LINE#         275
  C:5150H         LINE#         276
  C:515FH         LINE#         277
  C:516CH         LINE#         279
  C:5172H         LINE#         280
  C:5172H         LINE#         281
  C:5174H         LINE#         282
  C:5177H         LINE#         283
  C:5177H         LINE#         284
  -------         ENDPROC       _TX3_WRITE2BUFF
  -------         PROC          _TX4_WRITE2BUFF
  D:0007H         SYMBOL        dat
  C:5178H         LINE#         286
  C:5178H         LINE#         287
  C:5178H         LINE#         288
  C:5187H         LINE#         289
  C:5194H         LINE#         291
  C:519AH         LINE#         292
BL51 BANKED LINKER/LOCATER V6.00                                                      07/28/2017  21:19:49  PAGE 77


  C:519AH         LINE#         293
  C:519CH         LINE#         294
  C:519FH         LINE#         295
  C:519FH         LINE#         296
  -------         ENDPROC       _TX4_WRITE2BUFF
  -------         PROC          _PRINTSTRING1
  D:0001H         SYMBOL        puts
  C:563BH         LINE#         298
  C:563BH         LINE#         299
  C:563BH         LINE#         300
  C:563DH         LINE#         301
  C:564FH         LINE#         302
  C:5651H         LINE#         303
  -------         ENDPROC       _PRINTSTRING1
  -------         PROC          _PRINTSTRING2
  D:0001H         SYMBOL        puts
  C:56DBH         LINE#         305
  C:56DBH         LINE#         306
  C:56DBH         LINE#         307
  C:56EDH         LINE#         308
  -------         ENDPROC       _PRINTSTRING2
  -------         PROC          _PRINTSTRING3
  D:0001H         SYMBOL        puts
  C:56EEH         LINE#         310
  C:56EEH         LINE#         311
  C:56EEH         LINE#         312
  C:5700H         LINE#         313
  -------         ENDPROC       _PRINTSTRING3
  -------         PROC          _PRINTSTRING4
  D:0001H         SYMBOL        puts
  C:5701H         LINE#         315
  C:5701H         LINE#         316
  C:5701H         LINE#         317
  C:5713H         LINE#         318
  -------         ENDPROC       _PRINTSTRING4
  -------         PROC          UART1_INT
  C:4547H         LINE#         325
  C:4556H         LINE#         327
  C:4559H         LINE#         328
  C:4559H         LINE#         329
  C:455BH         LINE#         330
  C:4561H         LINE#         331
  C:4561H         LINE#         332
  C:456CH         LINE#         333
  C:4580H         LINE#         334
  C:4586H         LINE#         335
  C:4586H         LINE#         336
  C:4586H         LINE#         338
  C:4589H         LINE#         339
  C:4589H         LINE#         340
  C:458BH         LINE#         341
  C:4598H         LINE#         342
  C:4598H         LINE#         343
  C:45A5H         LINE#         344
  C:45B2H         LINE#         345
  C:45B4H         LINE#         346
  C:45B9H         LINE#         347
BL51 BANKED LINKER/LOCATER V6.00                                                      07/28/2017  21:19:49  PAGE 78


  C:45B9H         LINE#         348
  -------         ENDPROC       UART1_INT
  -------         PROC          UART2_INT
  C:43B8H         LINE#         351
  C:43C7H         LINE#         353
  C:43CCH         LINE#         354
  C:43CCH         LINE#         355
  C:43CFH         LINE#         356
  C:43D5H         LINE#         357
  C:43D5H         LINE#         358
  C:43E0H         LINE#         359
  C:43F4H         LINE#         360
  C:43FAH         LINE#         361
  C:43FAH         LINE#         362
  C:43FAH         LINE#         364
  C:43FFH         LINE#         365
  C:43FFH         LINE#         366
  C:4402H         LINE#         367
  C:440FH         LINE#         368
  C:440FH         LINE#         369
  C:441CH         LINE#         370
  C:4429H         LINE#         371
  C:442BH         LINE#         372
  C:4430H         LINE#         373
  C:4430H         LINE#         375
  -------         ENDPROC       UART2_INT
  -------         PROC          UART3_INT
  C:443DH         LINE#         379
  C:444CH         LINE#         381
  C:4451H         LINE#         382
  C:4451H         LINE#         383
  C:4454H         LINE#         384
  C:445AH         LINE#         385
  C:445AH         LINE#         386
  C:4465H         LINE#         387
  C:4479H         LINE#         388
  C:447FH         LINE#         389
  C:447FH         LINE#         390
  C:447FH         LINE#         392
  C:4484H         LINE#         393
  C:4484H         LINE#         394
  C:4487H         LINE#         395
  C:4494H         LINE#         396
  C:4494H         LINE#         397
  C:44A1H         LINE#         398
  C:44AEH         LINE#         399
  C:44B0H         LINE#         400
  C:44B5H         LINE#         401
  C:44B5H         LINE#         403
  -------         ENDPROC       UART3_INT
  -------         PROC          UART4_INT
  C:44C2H         LINE#         407
  C:44D1H         LINE#         409
  C:44D6H         LINE#         410
  C:44D6H         LINE#         411
  C:44D9H         LINE#         412
  C:44DFH         LINE#         413
BL51 BANKED LINKER/LOCATER V6.00                                                      07/28/2017  21:19:49  PAGE 79


  C:44DFH         LINE#         414
  C:44EAH         LINE#         415
  C:44FEH         LINE#         416
  C:4504H         LINE#         417
  C:4504H         LINE#         418
  C:4504H         LINE#         420
  C:4509H         LINE#         421
  C:4509H         LINE#         422
  C:450CH         LINE#         423
  C:4519H         LINE#         424
  C:4519H         LINE#         425
  C:4526H         LINE#         426
  C:4533H         LINE#         427
  C:4535H         LINE#         428
  C:453AH         LINE#         429
  C:453AH         LINE#         431
  -------         ENDPROC       UART4_INT
  -------         ENDMOD        USART1

  -------         MODULE        ADC
  C:0000H         SYMBOL        _ICE_DUMMY_
  D:0080H         PUBLIC        P0
  D:0090H         PUBLIC        P1
  C:4C21H         PUBLIC        _ADC_Inilize
  D:00A0H         PUBLIC        P2
  D:00B0H         PUBLIC        P3
  D:00C0H         PUBLIC        P4
  D:00C8H         PUBLIC        P5
  D:00E8H         PUBLIC        P6
  D:00F8H         PUBLIC        P7
  B:00A8H.5       PUBLIC        EADC
  D:00A8H         PUBLIC        IE
  D:00BDH         PUBLIC        ADC_RES
  B:00B8H.5       PUBLIC        PADC
  D:00B8H         PUBLIC        IP
  C:5805H         PUBLIC        _ADC_PowerControl
  D:00D8H         PUBLIC        CCON
  D:00BCH         PUBLIC        ADC_CONTR
  D:0098H         PUBLIC        SCON
  D:0088H         PUBLIC        TCON
  D:00F0H         PUBLIC        B
  D:00E0H         PUBLIC        ACC
  D:009DH         PUBLIC        P1ASF
  D:00BEH         PUBLIC        ADC_RESL
  D:0097H         PUBLIC        PCON2
  C:4A0DH         PUBLIC        _Get_ADC10bitResult
  C:587CH         PUBLIC        ADC_int
  D:00D0H         PUBLIC        PSW
  -------         PROC          _ADC_INILIZE
  D:0001H         SYMBOL        ADCx
  C:4C21H         LINE#         22
  C:4C21H         LINE#         23
  C:4C21H         LINE#         24
  C:4C26H         LINE#         25
  C:4C34H         LINE#         26
  C:4C3DH         LINE#         27
  C:4C3DH         LINE#         28
BL51 BANKED LINKER/LOCATER V6.00                                                      07/28/2017  21:19:49  PAGE 80


  C:4C40H         LINE#         29
  C:4C42H         LINE#         31
  C:4C42H         LINE#         32
  C:4C45H         LINE#         33
  C:4C45H         LINE#         34
  C:4C4EH         LINE#         35
  C:4C4EH         LINE#         36
  C:4C51H         LINE#         37
  C:4C53H         LINE#         39
  C:4C53H         LINE#         40
  C:4C56H         LINE#         41
  C:4C56H         LINE#         42
  C:4C5FH         LINE#         43
  C:4C5FH         LINE#         44
  C:4C61H         LINE#         45
  C:4C63H         LINE#         47
  C:4C63H         LINE#         48
  C:4C65H         LINE#         49
  C:4C65H         LINE#         50
  C:4C6EH         LINE#         51
  C:4C6EH         LINE#         52
  C:4C70H         LINE#         53
  C:4C71H         LINE#         55
  C:4C71H         LINE#         56
  C:4C73H         LINE#         57
  C:4C73H         LINE#         58
  -------         ENDPROC       _ADC_INILIZE
  -------         PROC          _ADC_POWERCONTROL
  D:0007H         SYMBOL        pwr
  C:5805H         LINE#         66
  C:5805H         LINE#         67
  C:5805H         LINE#         68
  C:5809H         LINE#         69
  C:5809H         LINE#         70
  C:580CH         LINE#         71
  C:580DH         LINE#         73
  C:580DH         LINE#         74
  C:5810H         LINE#         75
  C:5810H         LINE#         76
  -------         ENDPROC       _ADC_POWERCONTROL
  -------         PROC          _GET_ADC10BITRESULT
  D:0007H         SYMBOL        channel
  -------         DO            
  D:0004H         SYMBOL        adc
  D:0003H         SYMBOL        i
  -------         ENDDO         
  C:4A0DH         LINE#         84
  C:4A0DH         LINE#         85
  C:4A0DH         LINE#         88
  C:4A13H         LINE#         89
  C:4A13H         LINE#         90
  C:4A15H         LINE#         91
  C:4A15H         LINE#         92
  C:4A18H         LINE#         93
  C:4A1AH         LINE#         94
  C:4A23H         LINE#         95
  C:4A27H         LINE#         96
BL51 BANKED LINKER/LOCATER V6.00                                                      07/28/2017  21:19:49  PAGE 81


  C:4A29H         LINE#         97
  C:4A29H         LINE#         98
  C:4A2EH         LINE#         99
  C:4A2EH         LINE#         100
  C:4A31H         LINE#         101
  C:4A36H         LINE#         102
  C:4A36H         LINE#         103
  C:4A3AH         LINE#         104
  C:4A3DH         LINE#         105
  C:4A3FH         LINE#         107
  C:4A3FH         LINE#         108
  C:4A45H         LINE#         109
  C:4A5CH         LINE#         110
  C:4A5CH         LINE#         111
  C:4A61H         LINE#         112
  C:4A61H         LINE#         113
  C:4A66H         LINE#         114
  C:4A6AH         LINE#         115
  -------         ENDPROC       _GET_ADC10BITRESULT
  -------         PROC          ADC_INT
  C:587CH         LINE#         123
  C:587CH         LINE#         125
  C:587FH         LINE#         126
  -------         ENDPROC       ADC_INT
  -------         ENDMOD        ADC

  -------         MODULE        ?C?FPADD
  C:0807H         PUBLIC        ?C?FPADD
  C:0803H         PUBLIC        ?C?FPSUB
  -------         ENDMOD        ?C?FPADD

  -------         MODULE        ?C?FPMUL
  C:08F8H         PUBLIC        ?C?FPMUL
  -------         ENDMOD        ?C?FPMUL

  -------         MODULE        ?C?FPDIV
  C:0A01H         PUBLIC        ?C?FPDIV
  -------         ENDMOD        ?C?FPDIV

  -------         MODULE        ?C?FPCMP
  C:0AA0H         PUBLIC        ?C?FPCMP
  C:0A9EH         PUBLIC        ?C?FPCMP3
  -------         ENDMOD        ?C?FPCMP

  -------         MODULE        ?C?FCAST
  C:0B15H         PUBLIC        ?C?FCASTC
  C:0B10H         PUBLIC        ?C?FCASTI
  C:0B0BH         PUBLIC        ?C?FCASTL
  -------         ENDMOD        ?C?FCAST

  -------         MODULE        ?C?CASTF
  C:0B49H         PUBLIC        ?C?CASTF
  -------         ENDMOD        ?C?CASTF

  -------         MODULE        PRINTF
  X:039DH         PUBLIC        ?_PRINTF?BYTE
  X:039DH         PUBLIC        ?_SPRINTF?BYTE
BL51 BANKED LINKER/LOCATER V6.00                                                      07/28/2017  21:19:49  PAGE 82


  C:19B8H         PUBLIC        _PRINTF
  C:19B2H         PUBLIC        _SPRINTF
  -------         ENDMOD        PRINTF

  -------         MODULE        FABS
  C:57F8H         PUBLIC        _FABS
  -------         ENDMOD        FABS

  -------         MODULE        SQRT
  C:3F62H         PUBLIC        _SQRT
  -------         ENDMOD        SQRT

  -------         MODULE        SIN
  C:2FB2H         PUBLIC        _COS
  C:2FC8H         PUBLIC        _SIN
  C:3004H         PUBLIC        _TAN
  -------         ENDMOD        SIN

  -------         MODULE        POW
  X:03AAH         PUBLIC        ?_pow?BYTE
  C:30F2H         PUBLIC        _pow
  -------         ENDMOD        POW

  -------         MODULE        ?C?CHKFLOAT
  C:0BCAH         PUBLIC        ?C?CHKFLOAT
  -------         ENDMOD        ?C?CHKFLOAT

  -------         MODULE        ?C?FPNEG
  C:0BE4H         PUBLIC        ?C?FPNEG
  -------         ENDMOD        ?C?FPNEG

  -------         MODULE        ?C?FPROUND
  C:0BF5H         PUBLIC        ?C?FPROUND
  -------         ENDMOD        ?C?FPROUND

  -------         MODULE        ?C?FPCONVERT
  C:0C32H         PUBLIC        ?C?FPCONVERT
  -------         ENDMOD        ?C?FPCONVERT

  -------         MODULE        EXP
  C:42CAH         PUBLIC        _EXP
  -------         ENDMOD        EXP

  -------         MODULE        LOG
  C:364CH         PUBLIC        _LOG
  C:3648H         PUBLIC        _LOG10
  -------         ENDMOD        LOG

  -------         MODULE        ?C?FTNPWR
  C:0DB4H         PUBLIC        ?C?FTNPWR
  -------         ENDMOD        ?C?FTNPWR

  -------         MODULE        ?C?COPY
  C:0EC4H         PUBLIC        ?C?COPY
  -------         ENDMOD        ?C?COPY

  -------         MODULE        ?C?CLDPTR
BL51 BANKED LINKER/LOCATER V6.00                                                      07/28/2017  21:19:49  PAGE 83


  C:0EEAH         PUBLIC        ?C?CLDPTR
  -------         ENDMOD        ?C?CLDPTR

  -------         MODULE        ?C?CLDOPTR
  C:0F03H         PUBLIC        ?C?CLDOPTR
  -------         ENDMOD        ?C?CLDOPTR

  -------         MODULE        ?C?CSTPTR
  C:0F30H         PUBLIC        ?C?CSTPTR
  -------         ENDMOD        ?C?CSTPTR

  -------         MODULE        ?C?CSTOPTR
  C:0F42H         PUBLIC        ?C?CSTOPTR
  -------         ENDMOD        ?C?CSTOPTR

  -------         MODULE        ?C?IMUL
  C:0F64H         PUBLIC        ?C?IMUL
  -------         ENDMOD        ?C?IMUL

  -------         MODULE        ?C?UIDIV
  C:0F76H         PUBLIC        ?C?UIDIV
  -------         ENDMOD        ?C?UIDIV

  -------         MODULE        ?C?IILDX
  C:0FCBH         PUBLIC        ?C?IILDX
  -------         ENDMOD        ?C?IILDX

  -------         MODULE        ?C?ILDOPTR
  C:0FE1H         PUBLIC        ?C?ILDOPTR
  -------         ENDMOD        ?C?ILDOPTR

  -------         MODULE        ?C?LMUL
  C:1019H         PUBLIC        ?C?LMUL
  -------         ENDMOD        ?C?LMUL

  -------         MODULE        ?C?ULDIV
  C:10A4H         PUBLIC        ?C?ULDIV
  -------         ENDMOD        ?C?ULDIV

  -------         MODULE        ?C?SLDIV
  C:4DA7H         PUBLIC        ?C?SLDIV
  -------         ENDMOD        ?C?SLDIV

  -------         MODULE        ?C?LNEG
  C:1136H         PUBLIC        ?C?LNEG
  -------         ENDMOD        ?C?LNEG

  -------         MODULE        ?C?ULCMP
  C:1144H         PUBLIC        ?C?ULCMP
  -------         ENDMOD        ?C?ULCMP

  -------         MODULE        ?C?ULSHR
  C:1155H         PUBLIC        ?C?ULSHR
  -------         ENDMOD        ?C?ULSHR

  -------         MODULE        ?C?LLDXDATA
  C:1168H         PUBLIC        ?C?LLDXDATA
BL51 BANKED LINKER/LOCATER V6.00                                                      07/28/2017  21:19:49  PAGE 84


  -------         ENDMOD        ?C?LLDXDATA

  -------         MODULE        ?C?LLDCODE
  C:1174H         PUBLIC        ?C?LLDCODE
  -------         ENDMOD        ?C?LLDCODE

  -------         MODULE        ?C?LLDXDATA0
  C:1184H         PUBLIC        ?C?LLDXDATA0
  -------         ENDMOD        ?C?LLDXDATA0

  -------         MODULE        ?C?LLDCODE0
  C:1190H         PUBLIC        ?C?LLDCODE0
  -------         ENDMOD        ?C?LLDCODE0

  -------         MODULE        ?C?LLDOPTR0
  C:11A0H         PUBLIC        ?C?LLDOPTR0
  -------         ENDMOD        ?C?LLDOPTR0

  -------         MODULE        ?C?LSTXDATA
  C:11D0H         PUBLIC        ?C?LSTXDATA
  -------         ENDMOD        ?C?LSTXDATA

  -------         MODULE        ?C?LSTKXDATA
  C:11DCH         PUBLIC        ?C?LSTKXDATA
  -------         ENDMOD        ?C?LSTKXDATA

  -------         MODULE        ?C?PLDIXDATA
  C:120DH         PUBLIC        ?C?PLDIXDATA
  -------         ENDMOD        ?C?PLDIXDATA

  -------         MODULE        ?C?PSTXDATA
  C:1224H         PUBLIC        ?C?PSTXDATA
  -------         ENDMOD        ?C?PSTXDATA

  -------         MODULE        ?C?CCASE
  C:122DH         PUBLIC        ?C?CCASE
  -------         ENDMOD        ?C?CCASE

  -------         MODULE        PUTCHAR
  C:51EEH         PUBLIC        _PUTCHAR
  -------         ENDMOD        PUTCHAR

  -------         MODULE        ?C?LLDIDATA0
  C:1253H         PUBLIC        ?C?LLDIDATA0
  -------         ENDMOD        ?C?LLDIDATA0

  -------         MODULE        ?C?LLDPDATA0
  C:1260H         PUBLIC        ?C?LLDPDATA0
  -------         ENDMOD        ?C?LLDPDATA0

*** WARNING L16: UNCALLED SEGMENT, IGNORED FOR OVERLAY PROCESS
    SEGMENT: ?PR?DRAWLOOPSRTLINE?ABSTASK

*** WARNING L16: UNCALLED SEGMENT, IGNORED FOR OVERLAY PROCESS
    SEGMENT: ?PR?DRAWLOOPRECTANGLE?ABSTASK

*** WARNING L16: UNCALLED SEGMENT, IGNORED FOR OVERLAY PROCESS
BL51 BANKED LINKER/LOCATER V6.00                                                      07/28/2017  21:19:49  PAGE 85


    SEGMENT: ?PR?DRAWLINE?ABSTASK

*** WARNING L16: UNCALLED SEGMENT, IGNORED FOR OVERLAY PROCESS
    SEGMENT: ?PR?READLEFT?ABSTASK

*** WARNING L16: UNCALLED SEGMENT, IGNORED FOR OVERLAY PROCESS
    SEGMENT: ?PR?TURNLEFT?ABSTASK

*** WARNING L16: UNCALLED SEGMENT, IGNORED FOR OVERLAY PROCESS
    SEGMENT: ?PR?READRIGHT?ABSTASK

*** WARNING L16: UNCALLED SEGMENT, IGNORED FOR OVERLAY PROCESS
    SEGMENT: ?PR?TURNRIGHT?ABSTASK

*** WARNING L16: UNCALLED SEGMENT, IGNORED FOR OVERLAY PROCESS
    SEGMENT: ?PR?GOSTRAIGHT?ABSTASK

*** WARNING L16: UNCALLED SEGMENT, IGNORED FOR OVERLAY PROCESS
    SEGMENT: ?PR?_DRAWCIRCLE?ABSTASK

*** WARNING L16: UNCALLED SEGMENT, IGNORED FOR OVERLAY PROCESS
    SEGMENT: ?PR?STOPSYSTEM?TASK

*** WARNING L16: UNCALLED SEGMENT, IGNORED FOR OVERLAY PROCESS
    SEGMENT: ?PR?TEST?SETUP

*** WARNING L16: UNCALLED SEGMENT, IGNORED FOR OVERLAY PROCESS
    SEGMENT: ?PR?MODE1?MODE

*** WARNING L16: UNCALLED SEGMENT, IGNORED FOR OVERLAY PROCESS
    SEGMENT: ?PR?MODE2?MODE

*** WARNING L16: UNCALLED SEGMENT, IGNORED FOR OVERLAY PROCESS
    SEGMENT: ?PR?MODE3?MODE

*** WARNING L16: UNCALLED SEGMENT, IGNORED FOR OVERLAY PROCESS
    SEGMENT: ?PR?MODE4?MODE

*** WARNING L16: UNCALLED SEGMENT, IGNORED FOR OVERLAY PROCESS
    SEGMENT: ?PR?MODELAUNCHER?MODE

*** WARNING L16: UNCALLED SEGMENT, IGNORED FOR OVERLAY PROCESS
    SEGMENT: ?PR?_WRITEDATA?STORAGE

*** WARNING L16: UNCALLED SEGMENT, IGNORED FOR OVERLAY PROCESS
    SEGMENT: ?PR?BUTTON_CONFIG?BUTTON

*** WARNING L16: UNCALLED SEGMENT, IGNORED FOR OVERLAY PROCESS
    SEGMENT: ?PR?_GETBUTTONSTATE?BUTTON

*** WARNING L16: UNCALLED SEGMENT, IGNORED FOR OVERLAY PROCESS
    SEGMENT: ?PR?BUTTONSCAN?BUTTON

*** WARNING L16: UNCALLED SEGMENT, IGNORED FOR OVERLAY PROCESS
    SEGMENT: ?PR?GETBOARD_LED_STATE?LED

*** WARNING L16: UNCALLED SEGMENT, IGNORED FOR OVERLAY PROCESS
BL51 BANKED LINKER/LOCATER V6.00                                                      07/28/2017  21:19:49  PAGE 86


    SEGMENT: ?PR?_BOARD_LED_PWM?LED

*** WARNING L16: UNCALLED SEGMENT, IGNORED FOR OVERLAY PROCESS
    SEGMENT: ?PR?_SETSTEPMOTORWITHDISTANCE?STEP_MOTOR

*** WARNING L16: UNCALLED SEGMENT, IGNORED FOR OVERLAY PROCESS
    SEGMENT: ?PR?_SETSTEPMOTORWITHROUND?STEP_MOTOR

*** WARNING L16: UNCALLED SEGMENT, IGNORED FOR OVERLAY PROCESS
    SEGMENT: ?PR?_FREESTEPMOTOR?STEP_MOTOR

*** WARNING L16: UNCALLED SEGMENT, IGNORED FOR OVERLAY PROCESS
    SEGMENT: ?PR?_LOCKSTEPMOTOR?STEP_MOTOR

*** WARNING L16: UNCALLED SEGMENT, IGNORED FOR OVERLAY PROCESS
    SEGMENT: ?PR?_LCD_CLR_ROW?LCD5510_V2

*** WARNING L16: UNCALLED SEGMENT, IGNORED FOR OVERLAY PROCESS
    SEGMENT: ?PR?_LCD_PRINTS?LCD5510_V2

*** WARNING L16: UNCALLED SEGMENT, IGNORED FOR OVERLAY PROCESS
    SEGMENT: ?PR?_LCD_PRINTSL?LCD5510_V2

*** WARNING L16: UNCALLED SEGMENT, IGNORED FOR OVERLAY PROCESS
    SEGMENT: ?PR?LCD5510_INIT?LCD5510_V2

*** WARNING L16: UNCALLED SEGMENT, IGNORED FOR OVERLAY PROCESS
    SEGMENT: ?PR?_ADC_CONFIG?ANGLE

*** WARNING L16: UNCALLED SEGMENT, IGNORED FOR OVERLAY PROCESS
    SEGMENT: ?PR?GETANGLE?ANGLE

*** WARNING L16: UNCALLED SEGMENT, IGNORED FOR OVERLAY PROCESS
    SEGMENT: ?PR?_SETPINSTATE?GPIO

*** WARNING L16: UNCALLED SEGMENT, IGNORED FOR OVERLAY PROCESS
    SEGMENT: ?PR?_SET_PWM_PERIOD?STC15_PWM

*** WARNING L16: UNCALLED SEGMENT, IGNORED FOR OVERLAY PROCESS
    SEGMENT: ?PR?_GET_PWM_PERIOD?STC15_PWM

*** WARNING L16: UNCALLED SEGMENT, IGNORED FOR OVERLAY PROCESS
    SEGMENT: ?PR?_SET_PWM_DUTY?STC15_PWM

*** WARNING L16: UNCALLED SEGMENT, IGNORED FOR OVERLAY PROCESS
    SEGMENT: ?PR?_GET_PWM_N_DUTY?STC15_PWM

*** WARNING L16: UNCALLED SEGMENT, IGNORED FOR OVERLAY PROCESS
    SEGMENT: ?PR?_SETPWM_DIV?STC15_PWM

*** WARNING L16: UNCALLED SEGMENT, IGNORED FOR OVERLAY PROCESS
    SEGMENT: ?PR?_GETPWM_DIV?STC15_PWM

*** WARNING L16: UNCALLED SEGMENT, IGNORED FOR OVERLAY PROCESS
    SEGMENT: ?PR?OPEN_PWM_ALL?STC15_PWM

*** WARNING L16: UNCALLED SEGMENT, IGNORED FOR OVERLAY PROCESS
BL51 BANKED LINKER/LOCATER V6.00                                                      07/28/2017  21:19:49  PAGE 87


    SEGMENT: ?PR?CLOSE_PWM_ALL?STC15_PWM

*** WARNING L16: UNCALLED SEGMENT, IGNORED FOR OVERLAY PROCESS
    SEGMENT: ?PR?_OPEN_PWM_N?STC15_PWM

*** WARNING L16: UNCALLED SEGMENT, IGNORED FOR OVERLAY PROCESS
    SEGMENT: ?PR?_CLOSE_PWM_N?STC15_PWM

*** WARNING L16: UNCALLED SEGMENT, IGNORED FOR OVERLAY PROCESS
    SEGMENT: ?PR?_GET_PWM_N_STATE?STC15_PWM

*** WARNING L16: UNCALLED SEGMENT, IGNORED FOR OVERLAY PROCESS
    SEGMENT: ?PR?_PWM_INILIZE?STC15_PWM

*** WARNING L16: UNCALLED SEGMENT, IGNORED FOR OVERLAY PROCESS
    SEGMENT: ?PR?_SETTIMEOUT?TIMER

*** WARNING L16: UNCALLED SEGMENT, IGNORED FOR OVERLAY PROCESS
    SEGMENT: ?PR?_GETTIMEROUT?TIMER

*** WARNING L16: UNCALLED SEGMENT, IGNORED FOR OVERLAY PROCESS
    SEGMENT: ?PR?_SETTIMERHERTZ?TIMER

*** WARNING L16: UNCALLED SEGMENT, IGNORED FOR OVERLAY PROCESS
    SEGMENT: ?PR?_GETTIMERHERTZ?TIMER

*** WARNING L16: UNCALLED SEGMENT, IGNORED FOR OVERLAY PROCESS
    SEGMENT: ?PR?_STOPTIMER?TIMER

*** WARNING L16: UNCALLED SEGMENT, IGNORED FOR OVERLAY PROCESS
    SEGMENT: ?PR?_ISSTOPPED?TIMER

*** WARNING L16: UNCALLED SEGMENT, IGNORED FOR OVERLAY PROCESS
    SEGMENT: ?PR?_ONRESTARTTIMER?TIMER

*** WARNING L16: UNCALLED SEGMENT, IGNORED FOR OVERLAY PROCESS
    SEGMENT: ?PR?GETMICROS?TIMER

*** WARNING L16: UNCALLED SEGMENT, IGNORED FOR OVERLAY PROCESS
    SEGMENT: ?PR?GETMILLIS?TIMER

*** WARNING L16: UNCALLED SEGMENT, IGNORED FOR OVERLAY PROCESS
    SEGMENT: ?PR?GETSECONDS?TIMER

*** WARNING L16: UNCALLED SEGMENT, IGNORED FOR OVERLAY PROCESS
    SEGMENT: ?PR?GETMINUTES?TIMER

*** WARNING L16: UNCALLED SEGMENT, IGNORED FOR OVERLAY PROCESS
    SEGMENT: ?PR?GETHOURS?TIMER

*** WARNING L16: UNCALLED SEGMENT, IGNORED FOR OVERLAY PROCESS
    SEGMENT: ?PR?GETDAYS?TIMER

*** WARNING L16: UNCALLED SEGMENT, IGNORED FOR OVERLAY PROCESS
    SEGMENT: ?PR?_PRINTSTRING2?USART1

*** WARNING L16: UNCALLED SEGMENT, IGNORED FOR OVERLAY PROCESS
BL51 BANKED LINKER/LOCATER V6.00                                                      07/28/2017  21:19:49  PAGE 88


    SEGMENT: ?PR?_PRINTSTRING3?USART1

*** WARNING L16: UNCALLED SEGMENT, IGNORED FOR OVERLAY PROCESS
    SEGMENT: ?PR?_PRINTSTRING4?USART1

*** WARNING L16: UNCALLED SEGMENT, IGNORED FOR OVERLAY PROCESS
    SEGMENT: ?PR?_ADC_POWERCONTROL?ADC

*** WARNING L15: MULTIPLE CALL TO SEGMENT
    SEGMENT: ?PR?_SYSTEMUP?ABSTASK
    CALLER1: ?PR?TRACKING?ABSTASK
    CALLER2: ?PR?SYSTEMTEST?ABSTASK

*** WARNING L15: MULTIPLE CALL TO SEGMENT
    SEGMENT: ?PR?_SETTARGETCOORDINATE?TASK
    CALLER1: ?PR?TRACKING?ABSTASK
    CALLER2: ?PR?SYSTEMTEST?ABSTASK

*** WARNING L15: MULTIPLE CALL TO SEGMENT
    SEGMENT: ?PR?SETSTEPMOTORDIS?TASK
    CALLER1: ?PR?TRACKING?ABSTASK
    CALLER2: ?PR?SYSTEMTEST?ABSTASK

*** WARNING L15: MULTIPLE CALL TO SEGMENT
    SEGMENT: ?PR?_GETWIRELENGTH?TASK
    CALLER1: ?PR?TRACKING?ABSTASK
    CALLER2: ?PR?SYSTEMTEST?ABSTASK

*** WARNING L15: MULTIPLE CALL TO SEGMENT
    SEGMENT: ?PR?_POW?POW
    CALLER1: ?PR?TRACKING?ABSTASK
    CALLER2: ?PR?SYSTEMTEST?ABSTASK

*** WARNING L15: MULTIPLE CALL TO SEGMENT
    SEGMENT: ?PR?LOG?LOG
    CALLER1: ?PR?TRACKING?ABSTASK
    CALLER2: ?PR?SYSTEMTEST?ABSTASK

*** WARNING L15: MULTIPLE CALL TO SEGMENT
    SEGMENT: ?PR?SQRT?SQRT
    CALLER1: ?PR?TRACKING?ABSTASK
    CALLER2: ?PR?SYSTEMTEST?ABSTASK

*** WARNING L15: MULTIPLE CALL TO SEGMENT
    SEGMENT: ?PR?PRINTF?PRINTF
    CALLER1: ?PR?TRACKING?ABSTASK
    CALLER2: ?PR?SYSTEMTEST?ABSTASK

*** WARNING L15: MULTIPLE CALL TO SEGMENT
    SEGMENT: ?PR?_SETSTEPMOTORDIVERSION?STEP_MOTOR
    CALLER1: ?PR?TRACKING?ABSTASK
    CALLER2: ?PR?SYSTEMTEST?ABSTASK

*** WARNING L15: MULTIPLE CALL TO SEGMENT
    SEGMENT: ?PR?_GETPULSERCOUNT?TASK
    CALLER1: ?PR?TRACKING?ABSTASK
    CALLER2: ?PR?SYSTEMTEST?ABSTASK
BL51 BANKED LINKER/LOCATER V6.00                                                      07/28/2017  21:19:49  PAGE 89



*** WARNING L15: MULTIPLE CALL TO SEGMENT
    SEGMENT: ?PR?_TWOPOINTDISTANCE?TASK
    CALLER1: ?PR?TRACKING?ABSTASK
    CALLER2: ?PR?SYSTEMTEST?ABSTASK

*** WARNING L15: MULTIPLE CALL TO SEGMENT
    SEGMENT: ?PR?_SETSTEPMOTORWITHPULSE?STEP_MOTOR
    CALLER1: ?PR?TRACKING?ABSTASK
    CALLER2: ?PR?SYSTEMTEST?ABSTASK

*** WARNING L15: MULTIPLE CALL TO SEGMENT
    SEGMENT: ?PR?_SETPULSE?FIXEDPULSER
    CALLER1: ?PR?TRACKING?ABSTASK
    CALLER2: ?PR?SYSTEMTEST?ABSTASK

*** WARNING L15: MULTIPLE CALL TO SEGMENT
    SEGMENT: ?PR?_SYSTEMRIGHT?ABSTASK
    CALLER1: ?PR?TRACKING?ABSTASK
    CALLER2: ?PR?SYSTEMTEST?ABSTASK

*** WARNING L15: MULTIPLE CALL TO SEGMENT
    SEGMENT: ?PR?_SYSTEMDOWN?ABSTASK
    CALLER1: ?PR?TRACKING?ABSTASK
    CALLER2: ?PR?SYSTEMTEST?ABSTASK

*** WARNING L15: MULTIPLE CALL TO SEGMENT
    SEGMENT: ?PR?_SYSTEMLEFT?ABSTASK
    CALLER1: ?PR?TRACKING?ABSTASK
    CALLER2: ?PR?SYSTEMTEST?ABSTASK

******************************************************************************
* RESTRICTED VERSION WITH FFFFH BYTE CODE SIZE LIMIT; USED: 39CDH BYTE (22%) *
******************************************************************************

Program Size: data=57.4 xdata=1610 code=20647
LINK/LOCATE RUN COMPLETE.  78 WARNING(S),  0 ERROR(S)
