BL51 BANKED LINKER/LOCATER V6.00                                                        07/28/2017  08:56:32  PAGE 1


BL51 BANKED LINKER/LOCATER V6.00, INVOKED BY:
C:\KEIL_V5\C51\BIN\BL51.EXE .\absTask.obj, .\task.obj, .\setup.obj, .\mode.obj, .\direction.obj, .\Conf_tny.obj, .\FILTE
>> R.obj, .\DataScope_DP.obj, .\storage.obj, .\BUTTON.obj, .\LED.obj, .\STEP_MOTOR.obj, .\LCD5510_V2.obj, .\fixedPulser.
>> obj, .\delay.obj, .\GPIO.obj, .\stc15_pwm.obj, .\timer.obj, .\USART1.obj TO 悬挂运动控制系统 RTX51TINY RAMSIZE (256)


MEMORY MODEL: LARGE WITH FLOATING POINT ARITHMETIC


INPUT MODULES INCLUDED:
  .\absTask.obj (ABSTASK)
  .\task.obj (TASK)
  .\setup.obj (SETUP)
  .\mode.obj (MODE)
  .\direction.obj (DIRECTION)
  .\Conf_tny.obj (?RTX51_TINY_KERNAL)
  .\FILTER.obj (FILTER)
  .\DataScope_DP.obj (DATASCOPE_DP)
  .\storage.obj (STORAGE)
  .\BUTTON.obj (BUTTON)
  .\LED.obj (LED)
  .\STEP_MOTOR.obj (STEP_MOTOR)
  .\LCD5510_V2.obj (LCD5510_V2)
  .\fixedPulser.obj (FIXEDPULSER)
  .\delay.obj (DELAY)
  .\GPIO.obj (GPIO)
  .\stc15_pwm.obj (STC15_PWM)
  .\timer.obj (TIMER)
  .\USART1.obj (USART1)
  C:\KEIL_V5\C51\LIB\RTX51TNY.LIB (?RTX51_TINY_OS_CREATE)
  C:\KEIL_V5\C51\LIB\RTX51TNY.LIB (?RTX51_TINY_OS_DELETE)
  C:\KEIL_V5\C51\LIB\RTX51TNY.LIB (?RTX51_TINY_OS_WAIT)
  C:\KEIL_V5\C51\LIB\C51FPL.LIB (?C?FPADD)
  C:\KEIL_V5\C51\LIB\C51FPL.LIB (?C?FPMUL)
  C:\KEIL_V5\C51\LIB\C51FPL.LIB (?C?FPDIV)
  C:\KEIL_V5\C51\LIB\C51FPL.LIB (?C?FPCMP)
  C:\KEIL_V5\C51\LIB\C51FPL.LIB (?C?FCAST)
  C:\KEIL_V5\C51\LIB\C51FPL.LIB (?C?CASTF)
  C:\KEIL_V5\C51\LIB\C51FPL.LIB (PRINTF)
  C:\KEIL_V5\C51\LIB\C51FPL.LIB (FABS)
  C:\KEIL_V5\C51\LIB\C51FPL.LIB (SQRT)
  C:\KEIL_V5\C51\LIB\C51FPL.LIB (SIN)
  C:\KEIL_V5\C51\LIB\C51FPL.LIB (POW)
  C:\KEIL_V5\C51\LIB\C51FPL.LIB (?C?FPGETOPN)
  C:\KEIL_V5\C51\LIB\C51FPL.LIB (?C?CHKFLOAT)
  C:\KEIL_V5\C51\LIB\C51FPL.LIB (?C?FPNEG)
  C:\KEIL_V5\C51\LIB\C51FPL.LIB (?C?FPROUND)
  C:\KEIL_V5\C51\LIB\C51FPL.LIB (?C?FPCONVERT)
  C:\KEIL_V5\C51\LIB\C51FPL.LIB (?C?FPSERIES)
  C:\KEIL_V5\C51\LIB\C51FPL.LIB (EXP)
  C:\KEIL_V5\C51\LIB\C51FPL.LIB (LOG)
  C:\KEIL_V5\C51\LIB\C51FPL.LIB (?C?FTNPWR)
  C:\KEIL_V5\C51\LIB\C51L.LIB (?C_STARTUP)
  C:\KEIL_V5\C51\LIB\C51L.LIB (?C?COPY)
  C:\KEIL_V5\C51\LIB\C51L.LIB (?C?CLDPTR)
  C:\KEIL_V5\C51\LIB\C51L.LIB (?C?CLDOPTR)
  C:\KEIL_V5\C51\LIB\C51L.LIB (?C?CSTPTR)
  C:\KEIL_V5\C51\LIB\C51L.LIB (?C?CSTOPTR)
BL51 BANKED LINKER/LOCATER V6.00                                                      07/28/2017  08:56:32  PAGE 2


  C:\KEIL_V5\C51\LIB\C51L.LIB (?C?IMUL)
  C:\KEIL_V5\C51\LIB\C51L.LIB (?C?UIDIV)
  C:\KEIL_V5\C51\LIB\C51L.LIB (?C?IILDX)
  C:\KEIL_V5\C51\LIB\C51L.LIB (?C?ILDOPTR)
  C:\KEIL_V5\C51\LIB\C51L.LIB (?C?LMUL)
  C:\KEIL_V5\C51\LIB\C51L.LIB (?C?ULDIV)
  C:\KEIL_V5\C51\LIB\C51L.LIB (?C?SLDIV)
  C:\KEIL_V5\C51\LIB\C51L.LIB (?C?LNEG)
  C:\KEIL_V5\C51\LIB\C51L.LIB (?C?ULCMP)
  C:\KEIL_V5\C51\LIB\C51L.LIB (?C?ULSHR)
  C:\KEIL_V5\C51\LIB\C51L.LIB (?C?LLDXDATA)
  C:\KEIL_V5\C51\LIB\C51L.LIB (?C?LLDCODE)
  C:\KEIL_V5\C51\LIB\C51L.LIB (?C?LLDXDATA0)
  C:\KEIL_V5\C51\LIB\C51L.LIB (?C?LLDCODE0)
  C:\KEIL_V5\C51\LIB\C51L.LIB (?C?LLDOPTR0)
  C:\KEIL_V5\C51\LIB\C51L.LIB (?C?LSTXDATA)
  C:\KEIL_V5\C51\LIB\C51L.LIB (?C?LSTKXDATA)
  C:\KEIL_V5\C51\LIB\C51L.LIB (?C?PLDIXDATA)
  C:\KEIL_V5\C51\LIB\C51L.LIB (?C?PSTXDATA)
  C:\KEIL_V5\C51\LIB\C51L.LIB (?C?CCASE)
  C:\KEIL_V5\C51\LIB\C51L.LIB (PUTCHAR)
  C:\KEIL_V5\C51\LIB\C51L.LIB (?C_INIT)
  C:\KEIL_V5\C51\LIB\C51L.LIB (?C?LLDIDATA0)
  C:\KEIL_V5\C51\LIB\C51L.LIB (?C?LLDPDATA0)


TASK TABLE OF MODULE:  悬挂运动控制系统 (ABSTASK)

TASKID   PRIORITY   REG-BANK   SEGMENT NAME
-------------------------------------------
0        0          0          ?PR?TASKSTART?ABSTASK
1        0          0          ?PR?LEFTSTEPMOTORSTATEUPDATE?ABSTASK
2        0          0          ?PR?RIGHTSTEPMOTORSTATEUPDATE?ABSTASK
3        0          0          ?PR?SYSTEMSTATEUPDATE?ABSTASK
8        0          0          ?PR?SYSTEMTEST?ABSTASK



LINK MAP OF MODULE:  悬挂运动控制系统 (ABSTASK)


            TYPE    BASE      LENGTH    RELOCATION   SEGMENT NAME
            -----------------------------------------------------

            * * * * * * *   D A T A   M E M O R Y   * * * * * * *
            REG     0000H     0008H     ABSOLUTE     "REG BANK 0"
            DATA    0008H     0005H     ABSOLUTE     
            DATA    000DH     000AH     UNIT         _DATA_GROUP_
            IDATA   0017H     0009H     UNIT         ?RTX?TASKSP?S
            BIT     0020H.0   0002H.2   UNIT         _BIT_GROUP_
            BIT     0022H.2   0000H.4   UNIT         ?BI?BUTTON
            BIT     0022H.6   0000H.2   UNIT         ?BI?FIXEDPULSER
            BIT     0023H.0   0000H.1   UNIT         ?BI?LED
            BIT     0023H.1   0000H.1   UNIT         ?BI?_SETPINSTATE?GPIO
                    0023H.2   0000H.6                *** GAP ***
            IDATA   0024H     0012H     UNIT         ?RTX?TASKSTATE?S
            IDATA   0036H     0001H     UNIT         ?STACK
BL51 BANKED LINKER/LOCATER V6.00                                                      07/28/2017  08:56:32  PAGE 3



            * * * * * * *  X D A T A   M E M O R Y  * * * * * * *
            XDATA   0000H     028CH     UNIT         ?XD?USART1
            XDATA   028CH     00F2H     UNIT         _XDATA_GROUP_
            XDATA   037EH     006BH     UNIT         ?XD?ABSTASK
            XDATA   03E9H     003CH     UNIT         ?XD?STC15_PWM
            XDATA   0425H     0039H     UNIT         ?XD?TASK
            XDATA   045EH     0039H     UNIT         ?XD?SETUP
            XDATA   0497H     0039H     UNIT         ?XD?DIRECTION
            XDATA   04D0H     002AH     UNIT         ?XD?DATASCOPE_DP
            XDATA   04FAH     001CH     UNIT         ?XD?STEP_MOTOR
            XDATA   0516H     0018H     UNIT         ?XD?FIXEDPULSER
            XDATA   052EH     0016H     UNIT         ?XD?TIMER
            XDATA   0544H     0010H     UNIT         ?XD?_FILTER?FILTER
            XDATA   0554H     000AH     UNIT         ?XD?_FLOAT2BYTE?DATASCOPE_DP
            XDATA   055EH     0007H     UNIT         ?XD?_SETSTEPMOTORWITHDISTANCE?STEP_MOTOR
            XDATA   0565H     0007H     UNIT         ?XD?_SETSTEPMOTORWITHANGLE?STEP_MOTOR
            XDATA   056CH     0006H     UNIT         ?XD?_SENDSCOPEDATA?DATASCOPE_DP
            XDATA   0572H     0005H     UNIT         ?XD?_DATASCOPE_GET_CHANNEL_DATA?DATASCOPE_DP
            XDATA   0577H     0005H     UNIT         ?XD?_WRITEDATA?STORAGE
            XDATA   057CH     0005H     UNIT         ?XD?_LCD_PRINTS?LCD5510_V2
            XDATA   0581H     0005H     UNIT         ?XD?_LCD_PRINTSL?LCD5510_V2
            XDATA   0586H     0005H     UNIT         ?XD?_SET_PWM_DUTY?STC15_PWM
            XDATA   058BH     0004H     UNIT         ?XD?_SYSTEMUP?ABSTASK
            XDATA   058FH     0004H     UNIT         ?XD?_SYSTEMDOWN?ABSTASK
            XDATA   0593H     0004H     UNIT         ?XD?_SYSTEMLEFT?ABSTASK
            XDATA   0597H     0004H     UNIT         ?XD?_SYSTEMRIGHT?ABSTASK
            XDATA   059BH     0002H     UNIT         ?XD?DRAWLOOPSRTLINE?ABSTASK
            XDATA   059DH     0002H     UNIT         ?XD?DRAWLINE?ABSTASK
            XDATA   059FH     0002H     UNIT         ?XD?BUTTON_CONFIG?BUTTON
            XDATA   05A1H     0002H     UNIT         ?XD?_SETSTEPMOTORWITHROUND?STEP_MOTOR
            XDATA   05A3H     0002H     UNIT         ?XD?LCD5510_INIT?LCD5510_V2
            XDATA   05A5H     0002H     UNIT         ?XD?_SET_PWM_PERIOD?STC15_PWM
            XDATA   05A7H     0002H     UNIT         ?XD?_PWM_INILIZE?STC15_PWM
            XDATA   05A9H     0001H     UNIT         ?XD?DRAWLOOPRECTANGLE?ABSTASK
            XDATA   05AAH     0001H     UNIT         ?XD?_BOARD_LED_PWM?LED
            XDATA   05ABH     0001H     UNIT         ?XD?_CLOSE_STEPMOTOR?STEP_MOTOR

            * * * * * * *   C O D E   M E M O R Y   * * * * * * *
            CODE    0000H     0003H     ABSOLUTE     
                    0003H     0008H                  *** GAP ***
            CODE    000BH     0003H     ABSOLUTE     
                    000EH     0015H                  *** GAP ***
            CODE    0023H     0003H     ABSOLUTE     
                    0026H     001DH                  *** GAP ***
            CODE    0043H     0003H     ABSOLUTE     
                    0046H     001DH                  *** GAP ***
            CODE    0063H     0003H     ABSOLUTE     
                    0066H     0025H                  *** GAP ***
            CODE    008BH     0003H     ABSOLUTE     
                    008EH     0005H                  *** GAP ***
            CODE    0093H     0003H     ABSOLUTE     
                    0096H     0005H                  *** GAP ***
            CODE    009BH     0003H     ABSOLUTE     
                    009EH     0762H                  *** GAP ***
            CODE    0800H     0A6DH     UNIT         ?C?LIB_CODE
            CODE    126DH     06E0H     UNIT         ?PR?_USART_CONFIGURATION?USART1
BL51 BANKED LINKER/LOCATER V6.00                                                      07/28/2017  08:56:32  PAGE 4


            CODE    194DH     04B1H     UNIT         ?PR?SETSTEPMOTORDIS?TASK
            CODE    1DFEH     0483H     UNIT         ?PR?PRINTF?PRINTF
            CODE    2281H     039AH     UNIT         ?PR?_PWM_INILIZE?STC15_PWM
            CODE    261BH     0288H     UNIT         ?RTX?CODE
            CODE    28A3H     0279H     UNIT         ?CO?LCD5510_V2
            CODE    2B1CH     0252H     UNIT         ?PR?_TIMER_INILIZE?TIMER
            CODE    2D6EH     01CCH     UNIT         ?PR?_DRAWCIRCLE?ABSTASK
            CODE    2F3AH     01C4H     UNIT         ?PR?_GPIO_INILIZE?GPIO
            CODE    30FEH     0188H     UNIT         ?PR?SIN?SIN
            CODE    3286H     0166H     UNIT         ?PR?_POW?POW
            CODE    33ECH     0136H     UNIT         ?PR?_FILTER?FILTER
            CODE    3522H     0134H     UNIT         ?PR?_DATASCOPE_GET_CHANNEL_DATA?DATASCOPE_DP
            CODE    3656H     0129H     UNIT         ?PR?LOG?LOG
            CODE    377FH     011DH     UNIT         ?CO?TASK
            CODE    389CH     010BH     UNIT         ?PR?_GETWIRELENGTH?TASK
            CODE    39A7H     00ECH     UNIT         ?PR?_SETPULSE?FIXEDPULSER
            CODE    3A93H     00E4H     UNIT         ?PR?_SET_PWM_DUTY?STC15_PWM
            CODE    3B77H     00E0H     UNIT         ?PR?DRAWLINE?ABSTASK
            CODE    3C57H     00C8H     UNIT         ?PR?_STEPMOTOR_INIT?STEP_MOTOR
            CODE    3D1FH     00C7H     UNIT         ?PR?_SETSTEPMOTORWITHDISTANCE?STEP_MOTOR
            CODE    3DE6H     00BFH     UNIT         ?PR?_TWOPOINTDISTANCE?TASK
            CODE    3EA5H     00ACH     UNIT         ?C_INITSEG
            CODE    3F51H     00ACH     UNIT         ?PR?SQRT?SQRT
            CODE    3FFDH     00AAH     UNIT         ?PR?_FLOAT2BYTE?DATASCOPE_DP
            CODE    40A7H     00A5H     UNIT         ?PR?_DATASCOPE_DATA_GENERATE?DATASCOPE_DP
            CODE    414CH     009AH     UNIT         ?PR?_PWM_SET_T12_PERIOD?STC15_PWM
            CODE    41E6H     009AH     UNIT         ?PR?EXP?EXP
            CODE    4280H     008CH     UNIT         ?C_C51STARTUP
            CODE    430CH     0085H     UNIT         ?PR?UART2_INT?USART1
            CODE    4391H     0085H     UNIT         ?PR?UART3_INT?USART1
            CODE    4416H     0085H     UNIT         ?PR?UART4_INT?USART1
            CODE    449BH     007FH     UNIT         ?PR?UART1_INT?USART1
            CODE    451AH     007BH     UNIT         ?PR?PULSER_1INT?FIXEDPULSER
            CODE    4595H     007BH     UNIT         ?PR?PULSER_2INT?FIXEDPULSER
            CODE    4610H     0067H     UNIT         ?PR?DRAWLOOPSRTLINE?ABSTASK
            CODE    4677H     0065H     UNIT         ?PR?_SETSTEPMOTORWITHANGLE?STEP_MOTOR
            CODE    46DCH     0062H     UNIT         ?PR?_SYSTEMLEFT?ABSTASK
            CODE    473EH     0062H     UNIT         ?PR?_SYSTEMRIGHT?ABSTASK
            CODE    47A0H     0061H     UNIT         ?PR?_SET_PWM_PERIOD?STC15_PWM
            CODE    4801H     0057H     UNIT         ?PR?BUTTONSCAN?BUTTON
            CODE    4858H     0054H     UNIT         ?PR?TIMERINIT?TIMER
            CODE    48ACH     0052H     UNIT         ?PR?_SYSTEMUP?ABSTASK
            CODE    48FEH     0052H     UNIT         ?PR?_SYSTEMDOWN?ABSTASK
            CODE    4950H     004EH     UNIT         ?PR?LCD5510_INIT?LCD5510_V2
            CODE    499EH     004BH     UNIT         ?PR?_LCD_PRINTSL?LCD5510_V2
            CODE    49E9H     004AH     UNIT         ?PR?MOTIONSYSTEM_INIT?TASK
            CODE    4A33H     0046H     UNIT         ?PR?TASKSTART?ABSTASK
            CODE    4A79H     0044H     UNIT         ?C?LDIV
            CODE    4ABDH     003DH     UNIT         ?PR?STARTSYSTEM?TASK
            CODE    4AFAH     003DH     UNIT         ?PR?_LCD_PRINTC?LCD5510_V2
            CODE    4B37H     003BH     UNIT         ?PR?_LCD_PRINTS?LCD5510_V2
            CODE    4B72H     0039H     UNIT         ?PR?_SENDSCOPEDATA?DATASCOPE_DP
            CODE    4BABH     0039H     UNIT         ?PR?_SETSTEPMOTORWITHROUND?STEP_MOTOR
            CODE    4BE4H     0038H     UNIT         ?PR?DRAWLOOPRECTANGLE?ABSTASK
            CODE    4C1CH     0038H     UNIT         ?PR?_GETPULSERCOUNT?TASK
            CODE    4C54H     0035H     UNIT         ?PR?_UART1_INIT?SETUP
            CODE    4C89H     0032H     UNIT         ?CO?ABSTASK
BL51 BANKED LINKER/LOCATER V6.00                                                      07/28/2017  08:56:32  PAGE 5


            CODE    4CBBH     002DH     UNIT         ?PR?PULSERINIT?FIXEDPULSER
            CODE    4CE8H     002BH     UNIT         ?PR?RESETSYSTEM?ABSTASK
            CODE    4D13H     0028H     UNIT         ?PR?_OPEN_PWM_N?STC15_PWM
            CODE    4D3BH     0028H     UNIT         ?PR?_TX2_WRITE2BUFF?USART1
            CODE    4D63H     0028H     UNIT         ?PR?_TX3_WRITE2BUFF?USART1
            CODE    4D8BH     0028H     UNIT         ?PR?_TX4_WRITE2BUFF?USART1
            CODE    4DB3H     0027H     UNIT         ?PR?_TX1_WRITE2BUFF?USART1
            CODE    4DDAH     0027H     UNIT         ?PR?PUTCHAR?PUTCHAR
            CODE    4E01H     0025H     UNIT         ?PR?SYSTEMSTATEUPDATE?ABSTASK
            CODE    4E26H     0025H     UNIT         ?PR?_SETSTEPMOTORWITHPULSE?STEP_MOTOR
            CODE    4E4BH     0025H     UNIT         ?PR?_CLOSE_PWM_N?STC15_PWM
            CODE    4E70H     0025H     UNIT         ?PR?_SETTIMEOUT?TIMER
            CODE    4E95H     0023H     UNIT         ?CO?STEP_MOTOR
            CODE    4EB8H     0022H     UNIT         ?PR?_BLINK?LED
            CODE    4EDAH     0021H     UNIT         ?PR?BOARD_LED_INIT?LED
            CODE    4EFBH     0021H     UNIT         ?PR?LCD_CLR_SCR?LCD5510_V2
            CODE    4F1CH     0020H     UNIT         ?CO?SETUP
            CODE    4F3CH     0020H     UNIT         ?PR?_LCD_WRITE_BYTE?LCD5510_V2
            CODE    4F5CH     001FH     UNIT         ?PR?BUTTON_CONFIG?BUTTON
            CODE    4F7BH     001FH     UNIT         ?PR?_PWM_SET_PERIOD?STC15_PWM
            CODE    4F9AH     001FH     UNIT         ?PR?_ISEXPIREDTIMER?TIMER
            CODE    4FB9H     001FH     UNIT         ?PR?_ISSTOPPED?TIMER
            CODE    4FD8H     001EH     UNIT         ?PR?LEFTSTEPMOTORSTATEUPDATE?ABSTASK
            CODE    4FF6H     001EH     UNIT         ?PR?RIGHTSTEPMOTORSTATEUPDATE?ABSTASK
            CODE    5014H     001EH     UNIT         ?CO?LED
            CODE    5032H     001EH     UNIT         ?PR?_OPENPULSER?FIXEDPULSER
            CODE    5050H     001DH     UNIT         ?PR?_GETBUTTONSTATE?BUTTON
            CODE    506DH     001DH     UNIT         ?PR?_CLOSE_STEPMOTOR?STEP_MOTOR
            CODE    508AH     001DH     UNIT         ?PR?_CLOSEPULSER?FIXEDPULSER
            CODE    50A7H     001DH     UNIT         ?PR?_ISACTIVETIMER?TIMER
            CODE    50C4H     001CH     UNIT         ?PR?_SETCURRENTCOORDINATE?TASK
            CODE    50E0H     001CH     UNIT         ?PR?_SETTARGETCOORDINATE?TASK
            CODE    50FCH     001CH     UNIT         ?PR?_FREESTEPMOTOR?STEP_MOTOR
            CODE    5118H     001CH     UNIT         ?PR?_LOCKSTEPMOTOR?STEP_MOTOR
            CODE    5134H     001CH     UNIT         ?PR?_SETTIMERHERTZ?TIMER
            CODE    5150H     001BH     UNIT         ?PR?_SETSTEPMOTORDIVERSION?STEP_MOTOR
            CODE    516BH     001AH     UNIT         ?PR?_GET_PWM_PERIOD?STC15_PWM
            CODE    5185H     001AH     UNIT         ?PR?_GET_PWM_N_DUTY?STC15_PWM
            CODE    519FH     001AH     UNIT         ?PR?_GETTIMEROUT?TIMER
            CODE    51B9H     001AH     UNIT         ?PR?_GETTIMERHERTZ?TIMER
            CODE    51D3H     0017H     UNIT         ?PR?SYSTEMTEST?ABSTASK
            CODE    51EAH     0017H     UNIT         ?PR?_PRINTSTRING1?USART1
            CODE    5201H     0014H     UNIT         ?PR?SETUP?SETUP
            CODE    5215H     0014H     UNIT         ?PR?_LCD_POS_BYTE?LCD5510_V2
            CODE    5229H     0014H     UNIT         ?PR?_RESTARTTIMER?TIMER
            CODE    523DH     0013H     UNIT         ?PR?WAITINGSYSTEM?ABSTASK
            CODE    5250H     0013H     UNIT         ?PR?_OPEN_STEPMOTOR?STEP_MOTOR
            CODE    5263H     0013H     UNIT         ?PR?_LCD_CLR_ROW?LCD5510_V2
            CODE    5276H     0013H     UNIT         ?PR?_PRINTSTRING2?USART1
            CODE    5289H     0013H     UNIT         ?PR?_PRINTSTRING3?USART1
            CODE    529CH     0013H     UNIT         ?PR?_PRINTSTRING4?USART1
            CODE    52AFH     0012H     UNIT         ?RTX?TASKENT?S
            CODE    52C1H     0012H     UNIT         ?PR?_WRITEDATA?STORAGE
            CODE    52D3H     0012H     UNIT         ?PR?_GETPULSERSTATE?FIXEDPULSER
            CODE    52E5H     0012H     UNIT         ?PR?_GET_PWM_N_STATE?STC15_PWM
            CODE    52F7H     0011H     UNIT         ?PR?STOPSYSTEM?TASK
            CODE    5308H     0011H     UNIT         ?PR?_GETSTEPMOTORSTATE?STEP_MOTOR
BL51 BANKED LINKER/LOCATER V6.00                                                      07/28/2017  08:56:32  PAGE 6


            CODE    5319H     0011H     UNIT         ?PR?_SETPWM_DIV?STC15_PWM
            CODE    532AH     0011H     UNIT         ?PR?_GETPWM_DIV?STC15_PWM
            CODE    533BH     0010H     UNIT         ?PR?_DELAY_MS?DELAY
            CODE    534BH     000FH     UNIT         ?PR?_SETSTEPMOTORSTATE?STEP_MOTOR
            CODE    535AH     000EH     UNIT         ?PR?_STOPTIMER?TIMER
            CODE    5368H     000EH     UNIT         ?PR?_ONRESTARTTIMER?TIMER
            CODE    5376H     000DH     UNIT         ?PR?_FABS?FABS
            CODE    5383H     000AH     UNIT         ?PR?_DIGITALREAD?BUTTON
            CODE    538DH     000AH     UNIT         ?PR?OPEN_PWM_ALL?STC15_PWM
            CODE    5397H     000AH     UNIT         ?PR?CLOSE_PWM_ALL?STC15_PWM
            CODE    53A1H     0009H     UNIT         ?PR?GETMICROS?TIMER
            CODE    53AAH     0009H     UNIT         ?PR?GETMILLIS?TIMER
            CODE    53B3H     0007H     UNIT         ?PR?GETCURRENTCOORDINATE?TASK
            CODE    53BAH     0006H     UNIT         ?PR?GETSYSTEMSTATE?TASK
            CODE    53C0H     0006H     UNIT         ?PR?_SETSYSTEMSTATE?TASK
            CODE    53C6H     0006H     UNIT         ?PR?_BOARD_LED_PWM?LED
            CODE    53CCH     0006H     UNIT         ?PR?GETSECONDS?TIMER
            CODE    53D2H     0006H     UNIT         ?PR?GETMINUTES?TIMER
            CODE    53D8H     0006H     UNIT         ?PR?GETHOURS?TIMER
            CODE    53DEH     0006H     UNIT         ?PR?GETDAYS?TIMER
            CODE    53E4H     0005H     UNIT         ?PR?OPEN_BOARD_LED?LED
            CODE    53E9H     0005H     UNIT         ?PR?CLOSE_BOARD_LED?LED
            CODE    53EEH     0003H     UNIT         ?PR?GETBOARD_LED_STATE?LED
            CODE    53F1H     0003H     UNIT         ?PR?_SETPINSTATE?GPIO
            CODE    53F4H     0001H     UNIT         ?PR?TEST?SETUP
            CODE    53F5H     0001H     UNIT         ?PR?MODE1?MODE
            CODE    53F6H     0001H     UNIT         ?PR?MODE2?MODE
            CODE    53F7H     0001H     UNIT         ?PR?MODE3?MODE
            CODE    53F8H     0001H     UNIT         ?PR?MODE4?MODE
            CODE    53F9H     0001H     UNIT         ?PR?MODELAUNCHER?MODE



OVERLAY MAP OF MODULE:   悬挂运动控制系统 (ABSTASK)


SEGMENT                                             BIT_GROUP          DATA_GROUP          XDATA_GROUP
  +--> CALLED SEGMENT                            START    LENGTH     START    LENGTH     START    LENGTH
--------------------------------------------------------------------------------------------------------
?PR?TASKSTART?ABSTASK                            -----    -----      -----    -----      -----    -----
  +--> ?PR?SETUP?SETUP
  +--> ?PR?_BLINK?LED
  +--> ?PR?_SETCURRENTCOORDINATE?TASK

?PR?SETUP?SETUP                                  -----    -----      -----    -----      -----    -----
  +--> ?PR?_UART1_INIT?SETUP
  +--> ?PR?TIMERINIT?TIMER
  +--> ?PR?BOARD_LED_INIT?LED
  +--> ?PR?MOTIONSYSTEM_INIT?TASK

?PR?_UART1_INIT?SETUP                            -----    -----      -----    -----      028CH    000DH
  +--> ?PR?_USART_CONFIGURATION?USART1
  +--> ?CO?SETUP
  +--> ?PR?_PRINTSTRING1?USART1

?PR?_USART_CONFIGURATION?USART1                  -----    -----      -----    -----      0299H    0009H

BL51 BANKED LINKER/LOCATER V6.00                                                      07/28/2017  08:56:32  PAGE 7


?PR?_PRINTSTRING1?USART1                         -----    -----      -----    -----      -----    -----
  +--> ?PR?_TX1_WRITE2BUFF?USART1

?PR?TIMERINIT?TIMER                              -----    -----      -----    -----      028CH    0019H
  +--> ?PR?_TIMER_INILIZE?TIMER

?PR?BOARD_LED_INIT?LED                           -----    -----      -----    -----      028CH    0002H
  +--> ?PR?_GPIO_INILIZE?GPIO
  +--> ?CO?LED
  +--> ?PR?_PRINTSTRING1?USART1

?PR?MOTIONSYSTEM_INIT?TASK                       -----    -----      -----    -----      -----    -----
  +--> ?PR?_STEPMOTOR_INIT?STEP_MOTOR

?PR?_STEPMOTOR_INIT?STEP_MOTOR                   -----    -----      -----    -----      028CH    0018H
  +--> ?PR?_GPIO_INILIZE?GPIO
  +--> ?PR?PULSERINIT?FIXEDPULSER
  +--> ?CO?STEP_MOTOR
  +--> ?PR?PRINTF?PRINTF
  +--> ?PR?_PRINTSTRING1?USART1

?PR?PULSERINIT?FIXEDPULSER                       -----    -----      -----    -----      02A4H    0002H
  +--> ?PR?_GPIO_INILIZE?GPIO

?PR?PRINTF?PRINTF                                0021H.1  0001H.1    0012H    0005H      034EH    0030H
  +--> ?PR?PUTCHAR?PUTCHAR

?PR?_BLINK?LED                                   -----    -----      -----    -----      028CH    0001H
  +--> ?PR?OPEN_BOARD_LED?LED
  +--> ?PR?_DELAY_MS?DELAY
  +--> ?PR?CLOSE_BOARD_LED?LED

?PR?_SETCURRENTCOORDINATE?TASK                   -----    -----      -----    -----      028CH    0008H

*** NEW ROOT ***************************************************

?PR?SYSTEMTEST?ABSTASK                           -----    -----      -----    -----      -----    -----
  +--> ?PR?_DRAWCIRCLE?ABSTASK

?PR?_DRAWCIRCLE?ABSTASK                          -----    -----      -----    -----      02D4H    001AH
  +--> ?CO?ABSTASK
  +--> ?PR?PRINTF?PRINTF
  +--> ?PR?_PRINTSTRING1?USART1
  +--> ?PR?SIN?SIN
  +--> ?PR?_SETTARGETCOORDINATE?TASK
  +--> ?PR?WAITINGSYSTEM?ABSTASK
  +--> ?PR?STARTSYSTEM?TASK
  +--> ?PR?RESETSYSTEM?ABSTASK

?PR?SIN?SIN                                      0021H.1  0000H.1    -----    -----      02EEH    0004H

?PR?_SETTARGETCOORDINATE?TASK                    -----    -----      -----    -----      02EEH    0008H

?PR?WAITINGSYSTEM?ABSTASK                        -----    -----      -----    -----      -----    -----
  +--> ?PR?GETSYSTEMSTATE?TASK

?PR?STARTSYSTEM?TASK                             -----    -----      -----    -----      -----    -----
BL51 BANKED LINKER/LOCATER V6.00                                                      07/28/2017  08:56:32  PAGE 8


  +--> ?PR?SETSTEPMOTORDIS?TASK
  +--> ?PR?_OPEN_STEPMOTOR?STEP_MOTOR

?PR?SETSTEPMOTORDIS?TASK                         -----    -----      -----    -----      02EEH    0060H
  +--> ?PR?_GETWIRELENGTH?TASK
  +--> ?CO?TASK
  +--> ?PR?PRINTF?PRINTF
  +--> ?PR?_FABS?FABS
  +--> ?PR?_SETSTEPMOTORDIVERSION?STEP_MOTOR
  +--> ?PR?_GETPULSERCOUNT?TASK
  +--> ?PR?_TWOPOINTDISTANCE?TASK
  +--> ?PR?_PRINTSTRING1?USART1
  +--> ?PR?_SETSTEPMOTORWITHPULSE?STEP_MOTOR

?PR?_GETWIRELENGTH?TASK                          -----    -----      -----    -----      034EH    000DH
  +--> ?PR?_POW?POW
  +--> ?PR?SQRT?SQRT

?PR?_POW?POW                                     -----    -----      -----    -----      035BH    000AH
  +--> ?PR?LOG?LOG
  +--> ?PR?EXP?EXP

?PR?LOG?LOG                                      0021H.1  0000H.1    -----    -----      0365H    0004H

?PR?SQRT?SQRT                                    -----    -----      -----    -----      035EH    0004H

?PR?_SETSTEPMOTORDIVERSION?STEP_MOTOR            0021H.1  0000H.1    -----    -----      -----    -----

?PR?_GETPULSERCOUNT?TASK                         -----    -----      -----    -----      034EH    0004H

?PR?_TWOPOINTDISTANCE?TASK                       -----    -----      -----    -----      034EH    0010H
  +--> ?PR?SQRT?SQRT

?PR?_SETSTEPMOTORWITHPULSE?STEP_MOTOR            -----    -----      -----    -----      034EH    0007H
  +--> ?PR?_SETPULSE?FIXEDPULSER

?PR?_SETPULSE?FIXEDPULSER                        -----    -----      -----    -----      0355H    000BH

?PR?_OPEN_STEPMOTOR?STEP_MOTOR                   -----    -----      -----    -----      -----    -----
  +--> ?PR?_OPENPULSER?FIXEDPULSER

?PR?RESETSYSTEM?ABSTASK                          -----    -----      -----    -----      -----    -----
  +--> ?PR?_SETTARGETCOORDINATE?TASK
  +--> ?PR?WAITINGSYSTEM?ABSTASK
  +--> ?PR?STARTSYSTEM?TASK

*** NEW ROOT ***************************************************

?PR?LEFTSTEPMOTORSTATEUPDATE?ABSTASK             -----    -----      -----    -----      -----    -----
  +--> ?PR?_GETPULSERSTATE?FIXEDPULSER
  +--> ?PR?_SETSTEPMOTORSTATE?STEP_MOTOR

*** NEW ROOT ***************************************************

?PR?RIGHTSTEPMOTORSTATEUPDATE?ABSTASK            -----    -----      -----    -----      -----    -----
  +--> ?PR?_GETPULSERSTATE?FIXEDPULSER
  +--> ?PR?_SETSTEPMOTORSTATE?STEP_MOTOR
BL51 BANKED LINKER/LOCATER V6.00                                                      07/28/2017  08:56:32  PAGE 9



*** NEW ROOT ***************************************************

?PR?SYSTEMSTATEUPDATE?ABSTASK                    -----    -----      -----    -----      -----    -----
  +--> ?PR?_GETSTEPMOTORSTATE?STEP_MOTOR
  +--> ?PR?_SETSYSTEMSTATE?TASK

*** NEW ROOT ***************************************************

?PR?PULSER_1INT?FIXEDPULSER                      -----    -----      -----    -----      -----    -----
  +--> ?PR?_CLOSEPULSER?FIXEDPULSER

*** NEW ROOT ***************************************************

?PR?PULSER_2INT?FIXEDPULSER                      -----    -----      -----    -----      -----    -----
  +--> ?PR?_CLOSEPULSER?FIXEDPULSER

*** NEW ROOT ***************************************************

?C_C51STARTUP                                    -----    -----      -----    -----      -----    -----
  +--> ?C_INITSEG



SYMBOL TABLE OF MODULE:  悬挂运动控制系统 (ABSTASK)

  VALUE           TYPE          NAME
  ----------------------------------

  -------         MODULE        ABSTASK
  C:0000H         SYMBOL        _ICE_DUMMY_
  D:0080H         PUBLIC        P0
  D:0090H         PUBLIC        P1
  C:523DH         PUBLIC        waitingSystem
  D:00A0H         PUBLIC        P2
  D:00B0H         PUBLIC        P3
  D:00C0H         PUBLIC        P4
  D:00C8H         PUBLIC        P5
  D:00E8H         PUBLIC        P6
  C:2D6EH         PUBLIC        _drawCircle
  D:00F8H         PUBLIC        P7
  D:00A8H         PUBLIC        IE
  C:4610H         PUBLIC        drawLoopSrtLine
  C:4E01H         PUBLIC        systemStateUpdate
  D:00B8H         PUBLIC        IP
  X:0386H         SYMBOL        g_StepMotorCurrentWireLen
  X:038EH         SYMBOL        g_StepMotorTargetWireLen
  D:00D8H         PUBLIC        CCON
  C:473EH         PUBLIC        _systemRight
  C:4CE8H         PUBLIC        resetSystem
  D:0098H         PUBLIC        SCON
  D:0088H         PUBLIC        TCON
  C:46DCH         PUBLIC        _systemLeft
  C:3B77H         PUBLIC        drawLine
  X:0396H         SYMBOL        g_CurrentCoordinate
  D:00F0H         PUBLIC        B
  C:4FF6H         PUBLIC        rightStepMotorStateUpdate
BL51 BANKED LINKER/LOCATER V6.00                                                      07/28/2017  08:56:32  PAGE 10


  X:039EH         SYMBOL        g_TargetCoordinate
  C:48FEH         PUBLIC        _systemDown
  C:4A33H         PUBLIC        taskStart
  X:03A6H         PUBLIC        initialX
  D:00E0H         PUBLIC        ACC
  X:03AAH         PUBLIC        initialY
  C:51D3H         PUBLIC        systemTest
  C:4FD8H         PUBLIC        leftStepMotorStateUpdate
  X:03AEH         PUBLIC        str
  X:03C8H         SYMBOL        g_MotionSystemInfo
  X:03E1H         PUBLIC        currentCodnat
  C:4BE4H         PUBLIC        drawLoopRectangle
  C:48ACH         PUBLIC        _systemUp
  D:00D0H         PUBLIC        PSW
  -------         PROC          TASKSTART
  C:4A33H         LINE#         25
  C:4A33H         LINE#         27
  C:4A36H         LINE#         28
  C:4A3BH         LINE#         29
  C:4A60H         LINE#         30
  C:4A65H         LINE#         31
  C:4A6AH         LINE#         32
  C:4A6FH         LINE#         33
  C:4A74H         LINE#         34
  -------         ENDPROC       TASKSTART
  -------         PROC          WAITINGSYSTEM
  -------         DO            
  C:523DH         SYMBOL        wait
  -------         ENDDO         
  C:523DH         LINE#         37
  C:523DH         LINE#         38
  C:523DH         LINE#         39
  C:523DH         LINE#         40
  C:5243H         LINE#         41
  C:5243H         LINE#         42
  C:524DH         LINE#         43
  C:524FH         LINE#         44
  C:524FH         LINE#         45
  -------         ENDPROC       WAITINGSYSTEM
  -------         PROC          RESETSYSTEM
  C:4CE8H         LINE#         47
  C:4CE8H         LINE#         48
  C:4CE8H         LINE#         49
  C:4D0DH         LINE#         50
  C:4D10H         LINE#         51
  -------         ENDPROC       RESETSYSTEM
  -------         PROC          _SYSTEMUP
  X:058BH         SYMBOL        dis
  C:48ACH         LINE#         56
  C:48B2H         LINE#         57
  C:48B2H         LINE#         58
  C:48C2H         LINE#         59
  C:48F8H         LINE#         60
  C:48FBH         LINE#         61
  -------         ENDPROC       _SYSTEMUP
  -------         PROC          _SYSTEMDOWN
  X:058FH         SYMBOL        dis
BL51 BANKED LINKER/LOCATER V6.00                                                      07/28/2017  08:56:32  PAGE 11


  C:48FEH         LINE#         64
  C:4904H         LINE#         65
  C:4904H         LINE#         66
  C:4914H         LINE#         67
  C:494AH         LINE#         68
  C:494DH         LINE#         69
  -------         ENDPROC       _SYSTEMDOWN
  -------         PROC          _SYSTEMLEFT
  X:0593H         SYMBOL        dis
  C:46DCH         LINE#         72
  C:46E2H         LINE#         73
  C:46E2H         LINE#         74
  C:46F2H         LINE#         75
  C:4738H         LINE#         76
  C:473BH         LINE#         77
  -------         ENDPROC       _SYSTEMLEFT
  -------         PROC          _SYSTEMRIGHT
  X:0597H         SYMBOL        dis
  C:473EH         LINE#         80
  C:4744H         LINE#         81
  C:4744H         LINE#         82
  C:4754H         LINE#         83
  C:479AH         LINE#         84
  C:479DH         LINE#         85
  -------         ENDPROC       _SYSTEMRIGHT
  -------         PROC          DRAWLOOPSRTLINE
  -------         DO            
  X:059BH         SYMBOL        i
  -------         ENDDO         
  C:4610H         LINE#         89
  C:4610H         LINE#         90
  C:4610H         LINE#         91
  C:4617H         LINE#         92
  C:4617H         LINE#         93
  C:4617H         LINE#         94
  C:461EH         LINE#         95
  C:461EH         LINE#         96
  C:4629H         LINE#         97
  C:4646H         LINE#         98
  C:465CH         LINE#         99
  C:465CH         LINE#         100
  C:4667H         LINE#         101
  -------         ENDPROC       DRAWLOOPSRTLINE
  -------         PROC          DRAWLOOPRECTANGLE
  -------         DO            
  X:05A9H         SYMBOL        length
  -------         ENDDO         
  C:4BE4H         LINE#         105
  C:4BE4H         LINE#         106
  C:4BE4H         LINE#         107
  C:4BEAH         LINE#         108
  C:4BEAH         LINE#         109
  C:4BEAH         LINE#         110
  C:4BF6H         LINE#         111
  C:4C02H         LINE#         112
  C:4C0EH         LINE#         113
  C:4C1AH         LINE#         114
BL51 BANKED LINKER/LOCATER V6.00                                                      07/28/2017  08:56:32  PAGE 12


  -------         ENDPROC       DRAWLOOPRECTANGLE
  -------         PROC          DRAWLINE
  -------         DO            
  X:037EH         SYMBOL        x
  X:0382H         SYMBOL        y
  X:059DH         SYMBOL        tmp
  -------         ENDDO         
  C:3B77H         LINE#         117
  C:3B77H         LINE#         118
  C:3B77H         LINE#         120
  C:3B7EH         LINE#         121
  C:3B84H         LINE#         122
  C:3B84H         LINE#         123
  C:3BC3H         LINE#         124
  C:3BCCH         LINE#         125
  C:3BEAH         LINE#         126
  C:3C07H         LINE#         128
  C:3C2CH         LINE#         129
  C:3C2FH         LINE#         130
  C:3C32H         LINE#         133
  C:3C54H         LINE#         135
  -------         ENDPROC       DRAWLINE
  -------         PROC          _DRAWCIRCLE
  X:02D4H         SYMBOL        x
  X:02D8H         SYMBOL        y
  -------         DO            
  X:02DCH         SYMBOL        tmp
  X:02DEH         SYMBOL        X
  X:02E2H         SYMBOL        Y
  X:02E6H         SYMBOL        subdivide
  X:02EAH         SYMBOL        angle
  -------         ENDDO         
  C:2D6EH         LINE#         140
  C:2D74H         LINE#         141
  C:2D74H         LINE#         142
  C:2D7BH         LINE#         143
  C:2D8FH         LINE#         144
  C:2DA3H         LINE#         145
  C:2DADH         LINE#         146
  C:2DB7H         LINE#         149
  C:2DE0H         LINE#         150
  C:2DE0H         LINE#         151
  C:2E2EH         LINE#         152
  C:2E37H         LINE#         154
  C:2E7EH         LINE#         155
  C:2EBBH         LINE#         156
  C:2EF8H         LINE#         157
  C:2F1DH         LINE#         158
  C:2F20H         LINE#         159
  C:2F23H         LINE#         162
  C:2F37H         LINE#         163
  -------         ENDPROC       _DRAWCIRCLE
  -------         PROC          SYSTEMTEST
  C:51D3H         LINE#         168
  C:51D3H         LINE#         170
  C:51D3H         LINE#         171
  C:51D3H         LINE#         172
BL51 BANKED LINKER/LOCATER V6.00                                                      07/28/2017  08:56:32  PAGE 13


  C:51E8H         LINE#         174
  -------         ENDPROC       SYSTEMTEST
  -------         PROC          LEFTSTEPMOTORSTATEUPDATE
  C:4FD8H         LINE#         179
  C:4FD8H         LINE#         181
  C:4FD8H         LINE#         182
  C:4FD8H         LINE#         183
  C:4FDFH         LINE#         184
  C:4FDFH         LINE#         185
  C:4FE1H         LINE#         188
  C:4FE3H         LINE#         190
  C:4FE3H         LINE#         191
  C:4FEAH         LINE#         194
  C:4FEAH         LINE#         195
  C:4FF4H         LINE#         196
  -------         ENDPROC       LEFTSTEPMOTORSTATEUPDATE
  -------         PROC          RIGHTSTEPMOTORSTATEUPDATE
  C:4FF6H         LINE#         198
  C:4FF6H         LINE#         200
  C:4FF6H         LINE#         201
  C:4FF6H         LINE#         202
  C:4FFDH         LINE#         203
  C:4FFDH         LINE#         204
  C:4FFFH         LINE#         206
  C:5001H         LINE#         208
  C:5001H         LINE#         209
  C:5008H         LINE#         211
  C:5008H         LINE#         212
  C:5012H         LINE#         213
  -------         ENDPROC       RIGHTSTEPMOTORSTATEUPDATE
  -------         PROC          SYSTEMSTATEUPDATE
  C:4E01H         LINE#         215
  C:4E01H         LINE#         217
  C:4E01H         LINE#         218
  C:4E01H         LINE#         219
  C:4E11H         LINE#         220
  C:4E11H         LINE#         221
  C:4E13H         LINE#         223
  C:4E15H         LINE#         225
  C:4E15H         LINE#         227
  C:4E1AH         LINE#         229
  C:4E1AH         LINE#         230
  C:4E24H         LINE#         232
  -------         ENDPROC       SYSTEMSTATEUPDATE
  -------         ENDMOD        ABSTASK

  -------         MODULE        TASK
  C:0000H         SYMBOL        _ICE_DUMMY_
  D:0080H         PUBLIC        P0
  D:0090H         PUBLIC        P1
  D:00A0H         PUBLIC        P2
  D:00B0H         PUBLIC        P3
  D:00C0H         PUBLIC        P4
  D:00C8H         PUBLIC        P5
  D:00E8H         PUBLIC        P6
  D:00F8H         PUBLIC        P7
  D:00A8H         PUBLIC        IE
BL51 BANKED LINKER/LOCATER V6.00                                                      07/28/2017  08:56:32  PAGE 14


  D:00B8H         PUBLIC        IP
  C:3DE6H         SYMBOL        _twoPointDistance
  X:0425H         SYMBOL        g_StepMotorCurrentWireLen
  X:042DH         SYMBOL        g_StepMotorTargetWireLen
  C:194DH         SYMBOL        setStepMotorDis
  D:00D8H         PUBLIC        CCON
  D:0098H         PUBLIC        SCON
  D:0088H         PUBLIC        TCON
  C:53B3H         PUBLIC        getCurrentCoordinate
  C:4ABDH         PUBLIC        startSystem
  X:0435H         SYMBOL        g_CurrentCoordinate
  D:00F0H         PUBLIC        B
  C:38AFH         SYMBOL        _getWireLength
  X:043DH         SYMBOL        g_TargetCoordinate
  C:50C4H         PUBLIC        _setCurrentCoordinate
  D:00E0H         PUBLIC        ACC
  C:50E0H         PUBLIC        _setTargetCoordinate
  C:4C27H         SYMBOL        _getPulserCount
  C:53BAH         PUBLIC        getSystemState
  C:52F7H         PUBLIC        stopSystem
  X:0445H         SYMBOL        g_MotionSystemInfo
  C:53C0H         PUBLIC        _setSystemState
  C:49E9H         PUBLIC        MotionSystem_Init
  D:00D0H         PUBLIC        PSW
  -------         PROC          GETSYSTEMSTATE
  C:53BAH         LINE#         42
  C:53BAH         LINE#         43
  C:53BAH         LINE#         44
  C:53BFH         LINE#         45
  -------         ENDPROC       GETSYSTEMSTATE
  -------         PROC          _SETSYSTEMSTATE
  D:0007H         SYMBOL        state
  C:53C0H         LINE#         46
  C:53C0H         LINE#         47
  C:53C0H         LINE#         48
  C:53C5H         LINE#         49
  -------         ENDPROC       _SETSYSTEMSTATE
  -------         PROC          STARTSYSTEM
  C:4ABDH         LINE#         74
  C:4ABDH         LINE#         75
  C:4ABDH         LINE#         76
  C:4AC3H         LINE#         78
  C:4AC6H         LINE#         80
  C:4ACBH         LINE#         81
  C:4AD0H         LINE#         84
  C:4AE4H         LINE#         85
  C:4AF8H         LINE#         87
  C:4AF9H         LINE#         88
  -------         ENDPROC       STARTSYSTEM
  -------         PROC          STOPSYSTEM
  C:52F7H         LINE#         97
  C:52F7H         LINE#         98
  C:52F7H         LINE#         99
  C:52FCH         LINE#         100
  C:5301H         LINE#         101
  C:5306H         LINE#         102
  C:5307H         LINE#         103
BL51 BANKED LINKER/LOCATER V6.00                                                      07/28/2017  08:56:32  PAGE 15


  -------         ENDPROC       STOPSYSTEM
  -------         PROC          _SETCURRENTCOORDINATE
  D:0004H         SYMBOL        x
  X:0290H         SYMBOL        y
  C:50C4H         LINE#         104
  C:50C4H         LINE#         105
  C:50C4H         LINE#         106
  C:50CAH         LINE#         107
  C:50DEH         LINE#         108
  C:50DFH         LINE#         109
  -------         ENDPROC       _SETCURRENTCOORDINATE
  -------         PROC          _SETTARGETCOORDINATE
  D:0004H         SYMBOL        x
  X:02F2H         SYMBOL        y
  C:50E0H         LINE#         119
  C:50E0H         LINE#         120
  C:50E0H         LINE#         121
  C:50E6H         LINE#         122
  C:50FAH         LINE#         124
  C:50FBH         LINE#         126
  -------         ENDPROC       _SETTARGETCOORDINATE
  -------         PROC          GETCURRENTCOORDINATE
  C:53B3H         LINE#         135
  C:53B3H         LINE#         136
  C:53B3H         LINE#         138
  C:53B9H         LINE#         139
  -------         ENDPROC       GETCURRENTCOORDINATE
  -------         PROC          MOTIONSYSTEM_INIT
  C:49E9H         LINE#         141
  C:49E9H         LINE#         142
  C:49E9H         LINE#         144
  C:4A0EH         LINE#         145
  -------         ENDPROC       MOTIONSYSTEM_INIT
  -------         PROC          L?0024
  -------         ENDPROC       L?0024
  -------         PROC          _GETWIRELENGTH
  D:0003H         SYMBOL        wire
  X:034FH         SYMBOL        x
  X:0353H         SYMBOL        y
  -------         DO            
  X:0357H         SYMBOL        Length
  -------         ENDDO         
  C:38AFH         LINE#         151
  C:38B1H         LINE#         152
  C:38B1H         LINE#         153
  C:38BBH         LINE#         154
  C:38C1H         LINE#         155
  C:38C1H         LINE#         157
  C:3913H         LINE#         162
  C:3915H         LINE#         164
  C:3915H         LINE#         166
  C:3998H         LINE#         171
  C:3998H         LINE#         172
  C:39A6H         LINE#         174
  -------         ENDPROC       _GETWIRELENGTH
  -------         PROC          _TWOPOINTDISTANCE
  X:034EH         SYMBOL        x1
BL51 BANKED LINKER/LOCATER V6.00                                                      07/28/2017  08:56:32  PAGE 16


  X:0352H         SYMBOL        y1
  X:0356H         SYMBOL        x2
  X:035AH         SYMBOL        y2
  C:3DE6H         LINE#         176
  C:3DECH         LINE#         177
  C:3DECH         LINE#         178
  C:3EA4H         LINE#         179
  -------         ENDPROC       _TWOPOINTDISTANCE
  -------         PROC          L?0025
  -------         ENDPROC       L?0025
  -------         PROC          _GETPULSERCOUNT
  X:034EH         SYMBOL        distance
  C:4C27H         LINE#         181
  C:4C2DH         LINE#         182
  C:4C2DH         LINE#         183
  C:4C53H         LINE#         184
  -------         ENDPROC       _GETPULSERCOUNT
  -------         PROC          SETSTEPMOTORDIS
  -------         DO            
  X:02EEH         SYMBOL        str
  X:0320H         SYMBOL        a
  X:0322H         SYMBOL        rightMotorPulse
  X:0326H         SYMBOL        leftMotorPulse
  X:032AH         SYMBOL        D_leftWireLength
  X:032EH         SYMBOL        D_rightWireLength
  X:0332H         SYMBOL        currentLeftWireLength
  X:0336H         SYMBOL        currentRightWireLength
  X:033AH         SYMBOL        targetLeftWireLength
  X:033EH         SYMBOL        targetRightWireLength
  X:0342H         SYMBOL        K
  X:0346H         SYMBOL        rightStepMotorSpeed
  X:0348H         SYMBOL        leftStepMotorSpeed
  X:034AH         SYMBOL        distance
  -------         ENDDO         
  C:194DH         LINE#         189
  C:194DH         LINE#         190
  C:194DH         LINE#         192
  C:1954H         LINE#         212
  C:1974H         LINE#         213
  C:19A7H         LINE#         214
  C:19D2H         LINE#         216
  C:19FDH         LINE#         223
  C:1A1DH         LINE#         224
  C:1A50H         LINE#         225
  C:1A7BH         LINE#         227
  C:1AA6H         LINE#         234
  C:1ACEH         LINE#         235
  C:1AF6H         LINE#         236
  C:1B21H         LINE#         238
  C:1B4CH         LINE#         246
  C:1B6DH         LINE#         247
  C:1B6DH         LINE#         248
  C:1B6FH         LINE#         250
  C:1B71H         LINE#         252
  C:1B71H         LINE#         253
  C:1B78H         LINE#         255
  C:1B78H         LINE#         257
BL51 BANKED LINKER/LOCATER V6.00                                                      07/28/2017  08:56:32  PAGE 17


  C:1B99H         LINE#         258
  C:1B99H         LINE#         259
  C:1B9BH         LINE#         261
  C:1B9DH         LINE#         263
  C:1B9DH         LINE#         264
  C:1BA4H         LINE#         266
  C:1BA4H         LINE#         270
  C:1BB3H         LINE#         272
  C:1BC2H         LINE#         274
  C:1C15H         LINE#         294
  C:1C5AH         LINE#         295
  C:1C85H         LINE#         297
  C:1CB0H         LINE#         299
  C:1CDBH         LINE#         300
  C:1CE4H         LINE#         303
  C:1D08H         LINE#         305
  C:1D10H         LINE#         306
  C:1D10H         LINE#         307
  C:1D1AH         LINE#         308
  C:1D42H         LINE#         309
  C:1D44H         LINE#         311
  C:1D44H         LINE#         312
  C:1D4EH         LINE#         313
  C:1D4EH         LINE#         314
  C:1D74H         LINE#         315
  C:1D7DH         LINE#         316
  C:1DA3H         LINE#         317
  C:1DACH         LINE#         319
  C:1DD4H         LINE#         320
  C:1DFCH         LINE#         347
  C:1DFDH         LINE#         348
  -------         ENDPROC       SETSTEPMOTORDIS
  -------         ENDMOD        TASK

  -------         MODULE        SETUP
  C:0000H         SYMBOL        _ICE_DUMMY_
  D:0080H         PUBLIC        P0
  D:0090H         PUBLIC        P1
  D:00A0H         PUBLIC        P2
  D:00B0H         PUBLIC        P3
  D:00C0H         PUBLIC        P4
  D:00C8H         PUBLIC        P5
  D:00E8H         PUBLIC        P6
  C:4C54H         PUBLIC        _UART1_init
  D:00F8H         PUBLIC        P7
  D:00A8H         PUBLIC        IE
  D:00B8H         PUBLIC        IP
  X:045EH         SYMBOL        g_StepMotorCurrentWireLen
  X:0466H         SYMBOL        g_StepMotorTargetWireLen
  D:00D8H         PUBLIC        CCON
  D:0098H         PUBLIC        SCON
  C:5201H         PUBLIC        setup
  D:0088H         PUBLIC        TCON
  X:046EH         SYMBOL        g_CurrentCoordinate
  D:00F0H         PUBLIC        B
  C:53F4H         PUBLIC        test
  X:0476H         SYMBOL        g_TargetCoordinate
BL51 BANKED LINKER/LOCATER V6.00                                                      07/28/2017  08:56:32  PAGE 18


  D:00E0H         PUBLIC        ACC
  X:047EH         SYMBOL        g_MotionSystemInfo
  D:00D0H         PUBLIC        PSW
  -------         PROC          _UART1_INIT
  D:0004H         SYMBOL        BandRate
  -------         DO            
  X:028CH         SYMBOL        COMx_InitStructure
  -------         ENDDO         
  C:4C54H         LINE#         36
  C:4C54H         LINE#         37
  C:4C54H         LINE#         39
  C:4C5AH         LINE#         40
  C:4C5EH         LINE#         41
  C:4C62H         LINE#         42
  C:4C68H         LINE#         43
  C:4C6BH         LINE#         44
  C:4C6EH         LINE#         45
  C:4C70H         LINE#         46
  C:4C73H         LINE#         47
  C:4C75H         LINE#         48
  C:4C80H         LINE#         49
  -------         ENDPROC       _UART1_INIT
  -------         PROC          TEST
  C:53F4H         LINE#         51
  C:53F4H         LINE#         52
  C:53F4H         LINE#         54
  -------         ENDPROC       TEST
  -------         PROC          SETUP
  C:5201H         LINE#         55
  C:5201H         LINE#         56
  C:5201H         LINE#         58
  C:520CH         LINE#         59
  C:520FH         LINE#         60
  C:5212H         LINE#         61
  -------         ENDPROC       SETUP
  -------         ENDMOD        SETUP

  -------         MODULE        MODE
  C:0000H         SYMBOL        _ICE_DUMMY_
  C:53F5H         PUBLIC        mode1
  C:53F6H         PUBLIC        mode2
  C:53F7H         PUBLIC        mode3
  C:53F8H         PUBLIC        mode4
  C:53F9H         PUBLIC        modeLauncher
  -------         PROC          MODE1
  C:53F5H         LINE#         2
  C:53F5H         LINE#         3
  C:53F5H         LINE#         5
  -------         ENDPROC       MODE1
  -------         PROC          MODE2
  C:53F6H         LINE#         7
  C:53F6H         LINE#         8
  C:53F6H         LINE#         10
  -------         ENDPROC       MODE2
  -------         PROC          MODE3
  C:53F7H         LINE#         13
  C:53F7H         LINE#         14
BL51 BANKED LINKER/LOCATER V6.00                                                      07/28/2017  08:56:32  PAGE 19


  C:53F7H         LINE#         16
  -------         ENDPROC       MODE3
  -------         PROC          MODE4
  C:53F8H         LINE#         18
  C:53F8H         LINE#         19
  C:53F8H         LINE#         21
  -------         ENDPROC       MODE4
  -------         PROC          MODELAUNCHER
  C:53F9H         LINE#         22
  C:53F9H         LINE#         23
  C:53F9H         LINE#         25
  -------         ENDPROC       MODELAUNCHER
  -------         ENDMOD        MODE

  -------         MODULE        DIRECTION
  C:0000H         SYMBOL        _ICE_DUMMY_
  D:0080H         PUBLIC        P0
  D:0090H         PUBLIC        P1
  D:00A0H         PUBLIC        P2
  D:00B0H         PUBLIC        P3
  D:00C0H         PUBLIC        P4
  D:00C8H         PUBLIC        P5
  D:00E8H         PUBLIC        P6
  D:00F8H         PUBLIC        P7
  D:00A8H         PUBLIC        IE
  D:00B8H         PUBLIC        IP
  X:0497H         SYMBOL        g_StepMotorCurrentWireLen
  X:049FH         SYMBOL        g_StepMotorTargetWireLen
  D:00D8H         PUBLIC        CCON
  D:0098H         PUBLIC        SCON
  D:0088H         PUBLIC        TCON
  X:04A7H         SYMBOL        g_CurrentCoordinate
  D:00F0H         PUBLIC        B
  X:04AFH         SYMBOL        g_TargetCoordinate
  D:00E0H         PUBLIC        ACC
  X:04B7H         SYMBOL        g_MotionSystemInfo
  D:00D0H         PUBLIC        PSW
  -------         ENDMOD        DIRECTION

  -------         MODULE        ?RTX51_TINY_KERNAL
  C:52AFH         SEGMENT       ?RTX?TASKENT?S
  I:0017H         SEGMENT       ?RTX?TASKSP?S
  I:0024H         SEGMENT       ?RTX?TASKSTATE?S
  C:261BH         SEGMENT       ?RTX?CODE
  C:2667H         PUBLIC        ?RTX?SET_ISR
  D:000CH         PUBLIC        ?RTX_CURRENTTASK
  D:0007H         PUBLIC        ?RTX_NEXTID
  C:267DH         PUBLIC        ?RTX_NEXTTASK
  N:00FFH         PUBLIC        ?RTX_RAMTOP
  C:52AFH         PUBLIC        ?RTX_TASKENTRY
  C:2731H         PUBLIC        ?RTX_TASKIDX
  I:0017H         PUBLIC        ?RTX_TASKSP
  I:0024H         PUBLIC        ?RTX_TASKSTATUS
  C:26F8H         PUBLIC        MAIN
  C:2668H         PUBLIC        OS_SWITCH_TASK
  C:266FH         SYMBOL        ?C0001
  C:2679H         SYMBOL        ?C0003
BL51 BANKED LINKER/LOCATER V6.00                                                      07/28/2017  08:56:32  PAGE 20


  C:267EH         SYMBOL        ?C0005
  C:2698H         SYMBOL        ?C0007
  C:269AH         SYMBOL        ?C0009
  C:26A4H         SYMBOL        ?C0011
  C:26D1H         SYMBOL        ?C0012
  C:26B7H         SYMBOL        ?C0013
  C:26BCH         SYMBOL        ?C0015
  C:26C7H         SYMBOL        ?C0016
  N:0000H         SYMBOL        ?RTX51_TINY_KERNAL
  N:F63CH         SYMBOL        ?RTX_CLOCK
  N:0008H         SYMBOL        ?RTX_REGISTERBANK
  D:000AH         SYMBOL        ?RTX_SAVEACC
  D:000BH         SYMBOL        ?RTX_SAVEPSW
  C:261BH         SYMBOL        ?RTX_STACKERROR
  D:00E0H         SYMBOL        ACC
  D:00F0H         SYMBOL        B
  N:0005H         SYMBOL        B_ACTIVE
  N:0007H         SYMBOL        B_IVL
  N:0007H         SYMBOL        B_RDY
  N:0004H         SYMBOL        B_READY
  N:0006H         SYMBOL        B_ROBIN
  N:0002H         SYMBOL        B_SIGNAL
  N:0003H         SYMBOL        B_TIMEOUT
  N:0000H         SYMBOL        B_WAITSIG
  N:0001H         SYMBOL        B_WAITTIM
  C:2645H         SYMBOL        CHECKSTACK
  N:0000H         SYMBOL        CODE_BANKING
  N:0000H         SYMBOL        CPU_IDLE_CODE
  D:0083H         SYMBOL        DPH
  D:0082H         SYMBOL        DPL
  B:00A8H.7       SYMBOL        EA
  B:00A8H.4       SYMBOL        ES
  B:00A8H.1       SYMBOL        ET0
  B:00A8H.3       SYMBOL        ET1
  B:00A8H.0       SYMBOL        EX0
  B:00A8H.2       SYMBOL        EX1
  N:0014H         SYMBOL        FREE_STACK
  C:261FH         SYMBOL        HW_TIMER
  D:00A8H         SYMBOL        IE
  B:0088H.1       SYMBOL        IE0
  B:0088H.3       SYMBOL        IE1
  N:09C4H         SYMBOL        INT_CLOCK
  N:0001H         SYMBOL        INT_REGBANK
  B:0088H.0       SYMBOL        IT0
  B:0088H.2       SYMBOL        IT1
  N:0020H         SYMBOL        K_ACTIVE
  N:0080H         SYMBOL        K_IVL
  N:0080H         SYMBOL        K_RDY
  N:0010H         SYMBOL        K_READY
  N:0040H         SYMBOL        K_ROBIN
  N:0001H         SYMBOL        K_SIG
  N:0002H         SYMBOL        K_TMO
  N:0000H         SYMBOL        LONG_USR_INTR
  C:2701H         SYMBOL        MAIN1
  C:270BH         SYMBOL        MAIN1X
  C:2706H         SYMBOL        MAIN2
  C:26EEH         SYMBOL        NOEVENT
BL51 BANKED LINKER/LOCATER V6.00                                                      07/28/2017  08:56:32  PAGE 21


  C:2661H         SYMBOL        NOTIMEOUT
  C:265FH         SYMBOL        NOWAITTIMEOUT
  C:2668H         SYMBOL        OS_SWITCH_TASK1
  D:0087H         SYMBOL        PCON
  D:00D0H         SYMBOL        PSW
  N:00FFH         SYMBOL        RAMTOP
  N:0080H         SYMBOL        RDY_EVENT
  C:26E2H         SYMBOL        SIGNALOFF
  C:26EEH         SYMBOL        SIGNALON
  N:0004H         SYMBOL        SIG_EVENT
  D:0081H         SYMBOL        SP
  I:0025H         SYMBOL        TASKSTATE
  D:0088H         SYMBOL        TCON
  B:0088H.5       SYMBOL        TF0
  B:0088H.7       SYMBOL        TF1
  D:008CH         SYMBOL        TH0
  D:008DH         SYMBOL        TH1
  C:26EAH         SYMBOL        TIMEOUTON
  C:2620H         SYMBOL        TIMERINT
  C:2651H         SYMBOL        TIMERLOOP
  I:0024H         SYMBOL        TIMERVAL
  N:0000H         SYMBOL        TIMESHARING
  D:008AH         SYMBOL        TL0
  D:008BH         SYMBOL        TL1
  D:0089H         SYMBOL        TMOD
  N:0008H         SYMBOL        TMO_EVENT
  B:0088H.4       SYMBOL        TR0
  B:0088H.6       SYMBOL        TR1
  C:000BH         LINE#         271
  C:261BH         LINE#         279
  C:261FH         LINE#         282
  C:2620H         LINE#         299
  C:2623H         LINE#         301
  C:2626H         LINE#         302
  C:2629H         LINE#         303
  C:262BH         LINE#         305
  C:262DH         LINE#         306
  C:262FH         LINE#         307
  C:2631H         LINE#         308
  C:2633H         LINE#         309
  C:2635H         LINE#         310
  C:2637H         LINE#         311
  C:2639H         LINE#         312
  C:263BH         LINE#         316
  C:263CH         LINE#         317
  C:263EH         LINE#         318
  C:263FH         LINE#         319
  C:2640H         LINE#         320
  C:2643H         LINE#         321
  C:2645H         LINE#         322
  C:2646H         LINE#         323
  C:2648H         LINE#         324
  C:264BH         LINE#         325
  C:264DH         LINE#         329
  C:264FH         LINE#         330
  C:2651H         LINE#         331
  C:2652H         LINE#         332
BL51 BANKED LINKER/LOCATER V6.00                                                      07/28/2017  08:56:32  PAGE 22


  C:2653H         LINE#         333
  C:2654H         LINE#         334
  C:2656H         LINE#         335
  C:2658H         LINE#         336
  C:2659H         LINE#         337
  C:265CH         LINE#         338
  C:265EH         LINE#         339
  C:265FH         LINE#         340
  C:2661H         LINE#         341
  C:2662H         LINE#         342
  C:2664H         LINE#         344
  C:2665H         LINE#         345
  C:2667H         LINE#         354
  C:2668H         LINE#         426
  C:266AH         LINE#         427
  C:266BH         LINE#         429
  C:266CH         LINE#         430
  C:266EH         LINE#         431
  C:266FH         LINE#         434
  C:2670H         LINE#         435
  C:2671H         LINE#         436
  C:2672H         LINE#         444
  C:2675H         LINE#         445
  C:2677H         LINE#         446
  C:2679H         LINE#         449
  C:267AH         LINE#         450
  C:267DH         LINE#         458
  C:267EH         LINE#         462
  C:2680H         LINE#         463
  C:2681H         LINE#         464
  C:2682H         LINE#         465
  C:2684H         LINE#         468
  C:2686H         LINE#         470
  C:2688H         LINE#         471
  C:268AH         LINE#         472
  C:268BH         LINE#         473
  C:268CH         LINE#         474
  C:268DH         LINE#         476
  C:268FH         LINE#         478
  C:2690H         LINE#         479
  C:2691H         LINE#         480
  C:2693H         LINE#         481
  C:2696H         LINE#         482
  C:2698H         LINE#         484
  C:2699H         LINE#         485
  C:269AH         LINE#         490
  C:269BH         LINE#         491
  C:269CH         LINE#         492
  C:269EH         LINE#         496
  C:269FH         LINE#         497
  C:26A0H         LINE#         498
  C:26A2H         LINE#         499
  C:26A4H         LINE#         505
  C:26A6H         LINE#         506
  C:26A7H         LINE#         507
  C:26A8H         LINE#         508
  C:26AAH         LINE#         510
BL51 BANKED LINKER/LOCATER V6.00                                                      07/28/2017  08:56:32  PAGE 23


  C:26ACH         LINE#         511
  C:26AEH         LINE#         512
  C:26AFH         LINE#         513
  C:26B0H         LINE#         516
  C:26B2H         LINE#         517
  C:26B5H         LINE#         518
  C:26B7H         LINE#         520
  C:26B8H         LINE#         522
  C:26B9H         LINE#         523
  C:26BAH         LINE#         524
  C:26BBH         LINE#         525
  C:26BCH         LINE#         529
  C:26BEH         LINE#         530
  C:26BFH         LINE#         531
  C:26C1H         LINE#         535
  C:26C3H         LINE#         536
  C:26C4H         LINE#         537
  C:26C5H         LINE#         539
  C:26C7H         LINE#         543
  C:26C9H         LINE#         544
  C:26CBH         LINE#         545
  C:26CCH         LINE#         546
  C:26CDH         LINE#         548
  C:26CFH         LINE#         549
  C:26D1H         LINE#         559
  C:26D3H         LINE#         560
  C:26D4H         LINE#         561
  C:26D6H         LINE#         562
  C:26D7H         LINE#         563
  C:26D9H         LINE#         564
  C:26DBH         LINE#         565
  C:26DCH         LINE#         571
  C:26DFH         LINE#         572
  C:26E2H         LINE#         576
  C:26E4H         LINE#         577
  C:26E7H         LINE#         578
  C:26EAH         LINE#         580
  C:26ECH         LINE#         581
  C:26EEH         LINE#         583
  C:26F0H         LINE#         584
  C:26F1H         LINE#         585
  C:26F3H         LINE#         587
  C:26F5H         LINE#         588
  C:26F7H         LINE#         601
  C:26F8H         LINE#         642
  C:26FAH         LINE#         643
  C:26FCH         LINE#         644
  C:26FEH         LINE#         645
  C:2700H         LINE#         646
  C:2701H         LINE#         647
  C:2702H         LINE#         648
  C:2704H         LINE#         649
  C:2706H         LINE#         650
  C:2708H         LINE#         651
  C:2709H         LINE#         652
  C:270BH         LINE#         653
  C:270CH         LINE#         654
BL51 BANKED LINKER/LOCATER V6.00                                                      07/28/2017  08:56:32  PAGE 24


  C:270DH         LINE#         655
  C:270EH         LINE#         656
  C:270FH         LINE#         657
  C:2711H         LINE#         658
  C:2713H         LINE#         659
  C:2715H         LINE#         660
  C:2718H         LINE#         661
  C:271AH         LINE#         662
  C:271BH         LINE#         663
  C:271DH         LINE#         664
  C:271EH         LINE#         665
  C:271FH         LINE#         666
  C:2721H         LINE#         670
  C:2724H         LINE#         671
  C:2727H         LINE#         672
  C:272AH         LINE#         673
  C:272CH         LINE#         674
  C:272EH         LINE#         675
  C:2730H         LINE#         676
  -------         ENDMOD        ?RTX51_TINY_KERNAL

  -------         MODULE        FILTER
  C:0000H         SYMBOL        _ICE_DUMMY_
  D:0080H         PUBLIC        P0
  D:0090H         PUBLIC        P1
  D:00A0H         PUBLIC        P2
  D:00B0H         PUBLIC        P3
  D:00C0H         PUBLIC        P4
  D:00C8H         PUBLIC        P5
  D:00E8H         PUBLIC        P6
  D:00F8H         PUBLIC        P7
  C:33ECH         PUBLIC        _filter
  D:00A8H         PUBLIC        IE
  D:00B8H         PUBLIC        IP
  D:00D8H         PUBLIC        CCON
  D:0098H         PUBLIC        SCON
  D:0088H         PUBLIC        TCON
  D:00F0H         PUBLIC        B
  D:00E0H         PUBLIC        ACC
  D:00D0H         PUBLIC        PSW
  -------         PROC          _FILTER
  D:0001H         SYMBOL        ary
  X:0547H         SYMBOL        num
  X:0548H         SYMBOL        MaxValue
  X:054AH         SYMBOL        MinValue
  -------         DO            
  X:054CH         SYMBOL        angleDataloopTemp2
  X:054EH         SYMBOL        finalData
  X:0550H         SYMBOL        maxValue
  X:0552H         SYMBOL        minValue
  -------         ENDDO         
  C:33ECH         LINE#         2
  C:33F1H         LINE#         3
  C:33F1H         LINE#         5
  C:33F8H         LINE#         6
  C:3407H         LINE#         7
  C:3416H         LINE#         8
BL51 BANKED LINKER/LOCATER V6.00                                                      07/28/2017  08:56:32  PAGE 25


  C:3438H         LINE#         9
  C:3438H         LINE#         10
  C:3454H         LINE#         11
  C:3454H         LINE#         12
  C:3471H         LINE#         13
  C:3471H         LINE#         14
  C:3493H         LINE#         15
  C:3493H         LINE#         16
  C:34B0H         LINE#         17
  C:34B0H         LINE#         18
  C:34D2H         LINE#         19
  C:34E6H         LINE#         20
  C:350BH         LINE#         21
  C:3521H         LINE#         22
  C:3521H         LINE#         23
  -------         ENDPROC       _FILTER
  -------         ENDMOD        FILTER

  -------         MODULE        DATASCOPE_DP
  C:0000H         SYMBOL        _ICE_DUMMY_
  D:0080H         PUBLIC        P0
  D:0090H         PUBLIC        P1
  D:00A0H         PUBLIC        P2
  D:00B0H         PUBLIC        P3
  D:00C0H         PUBLIC        P4
  D:00C8H         PUBLIC        P5
  D:00E8H         PUBLIC        P6
  D:00F8H         PUBLIC        P7
  X:04D0H         PUBLIC        DataScope_OutPut_Buffer
  D:00A8H         PUBLIC        IE
  D:00B8H         PUBLIC        IP
  D:00D8H         PUBLIC        CCON
  C:4B72H         PUBLIC        _sendScopeData
  D:0098H         PUBLIC        SCON
  D:0088H         PUBLIC        TCON
  D:00F0H         PUBLIC        B
  C:3FFDH         PUBLIC        _Float2Byte
  D:00E0H         PUBLIC        ACC
  C:40A7H         PUBLIC        _DataScope_Data_Generate
  C:3522H         PUBLIC        _DataScope_Get_Channel_Data
  D:00D0H         PUBLIC        PSW
  -------         PROC          _FLOAT2BYTE
  D:0001H         SYMBOL        target
  X:0557H         SYMBOL        buf
  X:055AH         SYMBOL        beg
  -------         DO            
  X:055BH         SYMBOL        point
  -------         ENDDO         
  C:3FFDH         LINE#         26
  C:3FFDH         LINE#         27
  C:3FFDH         LINE#         29
  C:4008H         LINE#         30
  C:4026H         LINE#         31
  C:4052H         LINE#         32
  C:407EH         LINE#         33
  -------         ENDPROC       _FLOAT2BYTE
  -------         PROC          _SENDSCOPEDATA
BL51 BANKED LINKER/LOCATER V6.00                                                      07/28/2017  08:56:32  PAGE 26


  D:0004H         SYMBOL        Data
  X:0570H         SYMBOL        channel
  -------         DO            
  X:0571H         SYMBOL        a
  -------         ENDDO         
  C:4B72H         LINE#         43
  C:4B72H         LINE#         44
  C:4B72H         LINE#         47
  C:4B7DH         LINE#         49
  C:4B93H         LINE#         50
  C:4B93H         LINE#         51
  C:4BA2H         LINE#         52
  C:4BAAH         LINE#         54
  -------         ENDPROC       _SENDSCOPEDATA
  -------         PROC          _DATASCOPE_GET_CHANNEL_DATA
  X:0572H         SYMBOL        Data
  X:0576H         SYMBOL        Channel
  C:3522H         LINE#         60
  C:3528H         LINE#         61
  C:3528H         LINE#         62
  C:353BH         LINE#         63
  C:353BH         LINE#         65
  C:353BH         LINE#         67
  C:353BH         LINE#         68
  C:3571H         LINE#         69
  C:3571H         LINE#         70
  C:3571H         LINE#         71
  C:3584H         LINE#         72
  C:3587H         LINE#         73
  C:3587H         LINE#         74
  C:359BH         LINE#         75
  C:359EH         LINE#         76
  C:359EH         LINE#         77
  C:35B2H         LINE#         78
  C:35B5H         LINE#         79
  C:35B5H         LINE#         80
  C:35C9H         LINE#         81
  C:35CCH         LINE#         82
  C:35CCH         LINE#         83
  C:35E0H         LINE#         84
  C:35E2H         LINE#         85
  C:35E2H         LINE#         86
  C:35F6H         LINE#         87
  C:35F8H         LINE#         88
  C:35F8H         LINE#         89
  C:360CH         LINE#         90
  C:360EH         LINE#         91
  C:360EH         LINE#         92
  C:3622H         LINE#         93
  C:3624H         LINE#         94
  C:3624H         LINE#         95
  C:3638H         LINE#         96
  C:363AH         LINE#         97
  C:363AH         LINE#         98
  C:3655H         LINE#         99
  C:3655H         LINE#         100
  C:3655H         LINE#         101
BL51 BANKED LINKER/LOCATER V6.00                                                      07/28/2017  08:56:32  PAGE 27


  C:3655H         LINE#         102
  -------         ENDPROC       _DATASCOPE_GET_CHANNEL_DATA
  -------         PROC          _DATASCOPE_DATA_GENERATE
  D:0007H         SYMBOL        Channel_Number
  C:40A7H         LINE#         107
  C:40A7H         LINE#         108
  C:40A7H         LINE#         109
  C:40B0H         LINE#         110
  C:40B0H         LINE#         111
  C:40B3H         LINE#         112
  C:40B3H         LINE#         114
  C:40B3H         LINE#         115
  C:40B9H         LINE#         116
  C:40EFH         LINE#         117
  C:40EFH         LINE#         118
  C:40EFH         LINE#         119
  C:40F5H         LINE#         120
  C:40F8H         LINE#         121
  C:40F8H         LINE#         122
  C:40F8H         LINE#         123
  C:40FEH         LINE#         124
  C:4101H         LINE#         125
  C:4101H         LINE#         126
  C:4101H         LINE#         127
  C:4107H         LINE#         128
  C:410AH         LINE#         129
  C:410AH         LINE#         130
  C:410AH         LINE#         131
  C:4110H         LINE#         132
  C:4113H         LINE#         133
  C:4113H         LINE#         134
  C:4113H         LINE#         135
  C:4119H         LINE#         136
  C:411CH         LINE#         137
  C:411CH         LINE#         138
  C:411CH         LINE#         139
  C:4122H         LINE#         140
  C:4125H         LINE#         141
  C:4125H         LINE#         142
  C:4125H         LINE#         143
  C:412BH         LINE#         144
  C:412EH         LINE#         145
  C:412EH         LINE#         146
  C:412EH         LINE#         147
  C:4134H         LINE#         148
  C:4137H         LINE#         149
  C:4137H         LINE#         150
  C:4137H         LINE#         151
  C:413DH         LINE#         152
  C:4140H         LINE#         153
  C:4140H         LINE#         154
  C:4140H         LINE#         155
  C:4146H         LINE#         156
  C:4149H         LINE#         157
  C:4149H         LINE#         158
  C:4149H         LINE#         159
  C:4149H         LINE#         160
BL51 BANKED LINKER/LOCATER V6.00                                                      07/28/2017  08:56:32  PAGE 28


  C:414BH         LINE#         161
  -------         ENDPROC       _DATASCOPE_DATA_GENERATE
  -------         ENDMOD        DATASCOPE_DP

  -------         MODULE        STORAGE
  C:0000H         SYMBOL        _ICE_DUMMY_
  D:0080H         PUBLIC        P0
  D:0090H         PUBLIC        P1
  D:00A0H         PUBLIC        P2
  D:00B0H         PUBLIC        P3
  D:00C0H         PUBLIC        P4
  D:00C8H         PUBLIC        P5
  D:00E8H         PUBLIC        P6
  D:00F8H         PUBLIC        P7
  D:00A8H         PUBLIC        IE
  D:00B8H         PUBLIC        IP
  D:00D8H         PUBLIC        CCON
  C:52C1H         PUBLIC        _writeData
  D:0098H         PUBLIC        SCON
  D:0088H         PUBLIC        TCON
  D:00F0H         PUBLIC        B
  D:00E0H         PUBLIC        ACC
  D:00D0H         PUBLIC        PSW
  -------         PROC          _WRITEDATA
  X:0577H         SYMBOL        add
  X:0579H         SYMBOL        Data
  C:52C1H         LINE#         3
  C:52D2H         LINE#         4
  C:52D2H         LINE#         6
  -------         ENDPROC       _WRITEDATA
  -------         ENDMOD        STORAGE

  -------         MODULE        BUTTON
  C:0000H         SYMBOL        _ICE_DUMMY_
  D:0080H         PUBLIC        P0
  D:0090H         PUBLIC        P1
  D:00A0H         PUBLIC        P2
  D:00B0H         PUBLIC        P3
  D:00C0H         PUBLIC        P4
  D:00C8H         PUBLIC        P5
  D:00E8H         PUBLIC        P6
  D:00F8H         PUBLIC        P7
  D:00A8H         PUBLIC        IE
  D:00B8H         PUBLIC        IP
  D:00D8H         PUBLIC        CCON
  C:4801H         PUBLIC        buttonScan
  B:0022H.2       SYMBOL        BUTTON1_bit
  B:0022H.3       SYMBOL        BUTTON2_bit
  B:0022H.4       SYMBOL        BUTTON3_bit
  B:0022H.5       SYMBOL        BUTTON4_bit
  D:0098H         PUBLIC        SCON
  B:00A0H.3       PUBLIC        P23
  D:0088H         PUBLIC        TCON
  B:00A0H.4       PUBLIC        P24
  B:00A0H.5       PUBLIC        P25
  B:00A0H.6       PUBLIC        P26
  D:00F0H         PUBLIC        B
BL51 BANKED LINKER/LOCATER V6.00                                                      07/28/2017  08:56:32  PAGE 29


  C:5050H         PUBLIC        _getButtonState
  D:00E0H         PUBLIC        ACC
  C:4F5CH         PUBLIC        Button_config
  C:5383H         SYMBOL        _digitalRead
  D:00D0H         PUBLIC        PSW
  -------         PROC          BUTTON_CONFIG
  -------         DO            
  X:059FH         SYMBOL        GPIO_InitStructure
  -------         ENDDO         
  C:4F5CH         LINE#         25
  C:4F5CH         LINE#         26
  C:4F5CH         LINE#         28
  C:4F62H         LINE#         29
  C:4F67H         LINE#         30
  C:4F72H         LINE#         31
  C:4F74H         LINE#         32
  C:4F76H         LINE#         33
  C:4F78H         LINE#         34
  C:4F7AH         LINE#         35
  -------         ENDPROC       BUTTON_CONFIG
  -------         PROC          _DIGITALREAD
  D:0006H         SYMBOL        pin
  C:5383H         LINE#         43
  C:5383H         LINE#         44
  C:5383H         LINE#         45
  C:5387H         LINE#         46
  C:5387H         LINE#         47
  C:538CH         LINE#         48
  C:538CH         LINE#         49
  -------         ENDPROC       _DIGITALREAD
  -------         PROC          _GETBUTTONSTATE
  D:0007H         SYMBOL        BUTTON_data
  C:5050H         LINE#         61
  C:5050H         LINE#         62
  C:5050H         LINE#         63
  C:5061H         LINE#         64
  C:5061H         LINE#         65
  C:5061H         LINE#         66
  C:5064H         LINE#         67
  C:5064H         LINE#         68
  C:5064H         LINE#         69
  C:5067H         LINE#         70
  C:5067H         LINE#         71
  C:5067H         LINE#         72
  C:506AH         LINE#         73
  C:506AH         LINE#         74
  C:506AH         LINE#         75
  C:506CH         LINE#         76
  C:506CH         LINE#         77
  C:506CH         LINE#         78
  -------         ENDPROC       _GETBUTTONSTATE
  -------         PROC          BUTTONSCAN
  C:4801H         LINE#         88
  C:4801H         LINE#         89
  C:4801H         LINE#         90
  C:480CH         LINE#         91
  C:480CH         LINE#         92
BL51 BANKED LINKER/LOCATER V6.00                                                      07/28/2017  08:56:32  PAGE 30


  C:4816H         LINE#         93
  C:4816H         LINE#         97
  C:4818H         LINE#         98
  C:4818H         LINE#         99
  C:481AH         LINE#         101
  C:481AH         LINE#         102
  C:481CH         LINE#         103
  C:481CH         LINE#         104
  C:4827H         LINE#         105
  C:4827H         LINE#         106
  C:482AH         LINE#         107
  C:482AH         LINE#         111
  C:482CH         LINE#         112
  C:482CH         LINE#         113
  C:482EH         LINE#         115
  C:482EH         LINE#         116
  C:4830H         LINE#         117
  C:4830H         LINE#         118
  C:483BH         LINE#         119
  C:483BH         LINE#         120
  C:483EH         LINE#         121
  C:483EH         LINE#         125
  C:4840H         LINE#         127
  C:4840H         LINE#         128
  C:4842H         LINE#         130
  C:4842H         LINE#         131
  C:4844H         LINE#         132
  C:4844H         LINE#         133
  C:484FH         LINE#         134
  C:484FH         LINE#         135
  C:4852H         LINE#         136
  C:4852H         LINE#         140
  C:4854H         LINE#         142
  C:4854H         LINE#         143
  C:4855H         LINE#         145
  C:4855H         LINE#         146
  C:4857H         LINE#         147
  C:4857H         LINE#         148
  -------         ENDPROC       BUTTONSCAN
  -------         ENDMOD        BUTTON

  -------         MODULE        LED
  C:0000H         SYMBOL        _ICE_DUMMY_
  D:0080H         PUBLIC        P0
  D:0090H         PUBLIC        P1
  D:00A0H         PUBLIC        P2
  D:00B0H         PUBLIC        P3
  D:00C0H         PUBLIC        P4
  D:00C8H         PUBLIC        P5
  B:0023H.0       SYMBOL        Board_LED_State
  D:00E8H         PUBLIC        P6
  D:00F8H         PUBLIC        P7
  D:00A8H         PUBLIC        IE
  C:4EB8H         PUBLIC        _blink
  C:4EDAH         PUBLIC        Board_LED_Init
  D:00B8H         PUBLIC        IP
  C:53E9H         PUBLIC        close_Board_LED
BL51 BANKED LINKER/LOCATER V6.00                                                      07/28/2017  08:56:32  PAGE 31


  D:00D8H         PUBLIC        CCON
  D:0098H         PUBLIC        SCON
  D:0088H         PUBLIC        TCON
  C:53E4H         PUBLIC        open_Board_LED
  B:00C8H.5       PUBLIC        P55
  D:00F0H         PUBLIC        B
  D:00E0H         PUBLIC        ACC
  C:53EEH         PUBLIC        getBoard_LED_State
  C:53C6H         PUBLIC        _Board_LED_PWM
  D:00D0H         PUBLIC        PSW
  -------         PROC          BOARD_LED_INIT
  -------         DO            
  X:028CH         SYMBOL        GPIO_InitStructure
  -------         ENDDO         
  C:4EDAH         LINE#         11
  C:4EDAH         LINE#         12
  C:4EDAH         LINE#         14
  C:4EE0H         LINE#         15
  C:4EE5H         LINE#         16
  C:4EF0H         LINE#         17
  C:4EF9H         LINE#         18
  C:4EFAH         LINE#         19
  -------         ENDPROC       BOARD_LED_INIT
  -------         PROC          OPEN_BOARD_LED
  C:53E4H         LINE#         20
  C:53E4H         LINE#         21
  C:53E4H         LINE#         22
  C:53E6H         LINE#         23
  C:53E8H         LINE#         24
  -------         ENDPROC       OPEN_BOARD_LED
  -------         PROC          CLOSE_BOARD_LED
  C:53E9H         LINE#         25
  C:53E9H         LINE#         26
  C:53E9H         LINE#         27
  C:53EBH         LINE#         28
  C:53EDH         LINE#         30
  -------         ENDPROC       CLOSE_BOARD_LED
  -------         PROC          _BLINK
  X:028CH         SYMBOL        time
  C:4EB8H         LINE#         31
  C:4EBDH         LINE#         32
  C:4EBDH         LINE#         33
  C:4EC7H         LINE#         34
  C:4EC7H         LINE#         35
  C:4ECAH         LINE#         36
  C:4ECFH         LINE#         37
  C:4ED2H         LINE#         38
  C:4ED7H         LINE#         40
  C:4ED9H         LINE#         41
  -------         ENDPROC       _BLINK
  -------         PROC          GETBOARD_LED_STATE
  C:53EEH         LINE#         42
  C:53EEH         LINE#         43
  C:53EEH         LINE#         44
  C:53F0H         LINE#         45
  -------         ENDPROC       GETBOARD_LED_STATE
  -------         PROC          _BOARD_LED_PWM
BL51 BANKED LINKER/LOCATER V6.00                                                      07/28/2017  08:56:32  PAGE 32


  X:05AAH         SYMBOL        luminance
  C:53C6H         LINE#         46
  C:53CBH         LINE#         47
  C:53CBH         LINE#         48
  C:53CBH         LINE#         49
  C:53CBH         LINE#         52
  C:53CBH         LINE#         54
  -------         ENDPROC       _BOARD_LED_PWM
  -------         ENDMOD        LED

  -------         MODULE        STEP_MOTOR
  C:0000H         SYMBOL        _ICE_DUMMY_
  D:0080H         PUBLIC        P0
  D:0090H         PUBLIC        P1
  D:00A0H         PUBLIC        P2
  D:00B0H         PUBLIC        P3
  D:00C0H         PUBLIC        P4
  D:00C8H         PUBLIC        P5
  D:00E8H         PUBLIC        P6
  C:534BH         PUBLIC        _setStepMotorState
  D:00F8H         PUBLIC        P7
  C:4677H         PUBLIC        _setStepMotorWithAngle
  D:00A8H         PUBLIC        IE
  B:00A0H.6       PUBLIC        StepMotor_1_LockControl
  B:00A0H.4       PUBLIC        StepMotor_2_LockControl
  D:00B8H         PUBLIC        IP
  X:04FAH         SYMBOL        g_stepMotor
  D:00D8H         PUBLIC        CCON
  C:506DH         PUBLIC        _close_StepMotor
  C:4BABH         PUBLIC        _setStepMotorWithRound
  C:4E26H         PUBLIC        _setStepMotorWithPulse
  D:0098H         PUBLIC        SCON
  D:0088H         PUBLIC        TCON
  C:5150H         PUBLIC        _setStepMotorDiversion
  D:00F0H         PUBLIC        B
  B:00A0H.7       PUBLIC        StepMotor_1_DiversionControl
  B:00A0H.5       PUBLIC        StepMotor_2_DiversionControl
  D:00E0H         PUBLIC        ACC
  C:5250H         PUBLIC        _open_StepMotor
  C:3C57H         PUBLIC        _stepMotor_Init
  C:3D1FH         PUBLIC        _setStepMotorWithDistance
  C:50FCH         PUBLIC        _freeStepMotor
  C:5118H         PUBLIC        _lockStepMotor
  C:5308H         PUBLIC        _getStepMotorState
  D:00D0H         PUBLIC        PSW
  -------         PROC          _SETSTEPMOTORWITHPULSE
  D:0007H         SYMBOL        motor
  X:034FH         SYMBOL        pulse
  X:0353H         SYMBOL        speed
  C:4E26H         LINE#         36
  C:4E26H         LINE#         37
  C:4E26H         LINE#         38
  C:4E49H         LINE#         39
  C:4E4AH         LINE#         40
  -------         ENDPROC       _SETSTEPMOTORWITHPULSE
  -------         PROC          _SETSTEPMOTORWITHDISTANCE
  X:055EH         SYMBOL        motor
BL51 BANKED LINKER/LOCATER V6.00                                                      07/28/2017  08:56:32  PAGE 33


  X:055FH         SYMBOL        distance
  X:0563H         SYMBOL        speed
  C:3D1FH         LINE#         51
  C:3D24H         LINE#         52
  C:3D24H         LINE#         55
  C:3DE4H         LINE#         57
  C:3DE5H         LINE#         59
  -------         ENDPROC       _SETSTEPMOTORWITHDISTANCE
  -------         PROC          _SETSTEPMOTORWITHANGLE
  X:0565H         SYMBOL        motor
  X:0566H         SYMBOL        angle
  X:056AH         SYMBOL        speed
  C:4677H         LINE#         70
  C:467CH         LINE#         71
  C:467CH         LINE#         73
  C:46DAH         LINE#         74
  C:46DBH         LINE#         75
  -------         ENDPROC       _SETSTEPMOTORWITHANGLE
  -------         PROC          _SETSTEPMOTORWITHROUND
  D:0007H         SYMBOL        motor
  D:0004H         SYMBOL        round
  X:05A1H         SYMBOL        speed
  C:4BABH         LINE#         86
  C:4BB3H         LINE#         87
  C:4BB3H         LINE#         88
  C:4BE2H         LINE#         89
  C:4BE3H         LINE#         90
  -------         ENDPROC       _SETSTEPMOTORWITHROUND
  -------         PROC          _SETSTEPMOTORSTATE
  D:0007H         SYMBOL        motor
  D:0005H         SYMBOL        state
  C:534BH         LINE#         91
  C:534BH         LINE#         92
  C:534BH         LINE#         93
  C:534EH         LINE#         94
  C:534EH         LINE#         95
  C:5353H         LINE#         96
  C:5354H         LINE#         98
  C:5354H         LINE#         99
  C:5359H         LINE#         100
  C:5359H         LINE#         101
  -------         ENDPROC       _SETSTEPMOTORSTATE
  -------         PROC          _GETSTEPMOTORSTATE
  D:0007H         SYMBOL        motor
  C:5308H         LINE#         110
  C:5308H         LINE#         111
  C:5308H         LINE#         112
  C:5318H         LINE#         113
  -------         ENDPROC       _GETSTEPMOTORSTATE
  -------         PROC          _SETSTEPMOTORDIVERSION
  D:0007H         SYMBOL        motor
  B:0021H.1       SYMBOL        diversion
  C:5150H         LINE#         115
  C:5150H         LINE#         116
  C:5150H         LINE#         118
  C:5153H         LINE#         119
  C:5153H         LINE#         120
BL51 BANKED LINKER/LOCATER V6.00                                                      07/28/2017  08:56:32  PAGE 34


  C:5156H         LINE#         121
  C:5156H         LINE#         122
  C:5158H         LINE#         123
  C:515AH         LINE#         125
  C:515AH         LINE#         126
  C:515CH         LINE#         127
  C:515CH         LINE#         128
  C:515CH         LINE#         129
  C:5160H         LINE#         130
  C:5160H         LINE#         131
  C:5163H         LINE#         132
  C:5163H         LINE#         133
  C:5165H         LINE#         134
  C:5167H         LINE#         136
  C:5167H         LINE#         137
  C:5169H         LINE#         138
  C:5169H         LINE#         139
  C:5169H         LINE#         142
  C:516AH         LINE#         143
  -------         ENDPROC       _SETSTEPMOTORDIVERSION
  -------         PROC          _CLOSE_STEPMOTOR
  X:05ABH         SYMBOL        motor
  C:506DH         LINE#         152
  C:5072H         LINE#         153
  C:5072H         LINE#         154
  C:5075H         LINE#         155
  C:5089H         LINE#         157
  -------         ENDPROC       _CLOSE_STEPMOTOR
  -------         PROC          _OPEN_STEPMOTOR
  D:0007H         SYMBOL        motor
  C:5250H         LINE#         166
  C:5250H         LINE#         167
  C:5250H         LINE#         168
  C:5260H         LINE#         169
  -------         ENDPROC       _OPEN_STEPMOTOR
  -------         PROC          _FREESTEPMOTOR
  D:0007H         SYMBOL        motor
  C:50FCH         LINE#         179
  C:50FCH         LINE#         180
  C:50FCH         LINE#         181
  C:50FFH         LINE#         182
  C:50FFH         LINE#         183
  C:5101H         LINE#         184
  C:5103H         LINE#         186
  C:5103H         LINE#         187
  C:5105H         LINE#         188
  C:5105H         LINE#         189
  C:5116H         LINE#         190
  C:5117H         LINE#         191
  -------         ENDPROC       _FREESTEPMOTOR
  -------         PROC          _LOCKSTEPMOTOR
  D:0007H         SYMBOL        motor
  C:5118H         LINE#         200
  C:5118H         LINE#         201
  C:5118H         LINE#         202
  C:511BH         LINE#         203
  C:511BH         LINE#         204
BL51 BANKED LINKER/LOCATER V6.00                                                      07/28/2017  08:56:32  PAGE 35


  C:511DH         LINE#         205
  C:511FH         LINE#         207
  C:511FH         LINE#         208
  C:5121H         LINE#         209
  C:5121H         LINE#         210
  C:5132H         LINE#         212
  C:5133H         LINE#         213
  -------         ENDPROC       _LOCKSTEPMOTOR
  -------         PROC          _STEPMOTOR_INIT
  X:028CH         SYMBOL        motor
  X:028DH         SYMBOL        div
  X:0291H         SYMBOL        driverDiv
  X:0292H         SYMBOL        maxPeriod
  X:0294H         SYMBOL        bearingDia
  -------         DO            
  X:0298H         SYMBOL        initInfo
  X:02A2H         SYMBOL        GPIO_InitStructure
  -------         ENDDO         
  C:3C57H         LINE#         225
  C:3C5CH         LINE#         226
  C:3C5CH         LINE#         230
  C:3C61H         LINE#         231
  C:3C65H         LINE#         232
  C:3C70H         LINE#         233
  C:3C93H         LINE#         234
  C:3CA8H         LINE#         235
  C:3CC3H         LINE#         236
  C:3CE2H         LINE#         237
  C:3CF3H         LINE#         238
  C:3CF6H         LINE#         239
  C:3D16H         LINE#         240
  -------         ENDPROC       _STEPMOTOR_INIT
  -------         ENDMOD        STEP_MOTOR

  -------         MODULE        LCD5510_V2
  C:0000H         SYMBOL        _ICE_DUMMY_
  D:0080H         PUBLIC        P0
  D:0090H         PUBLIC        P1
  D:00A0H         PUBLIC        P2
  D:00B0H         PUBLIC        P3
  D:00C0H         PUBLIC        P4
  D:00C8H         PUBLIC        P5
  D:00E8H         PUBLIC        P6
  D:00F8H         PUBLIC        P7
  D:00A8H         PUBLIC        IE
  B:00C8H.0       PUBLIC        LCD_CLK
  B:00C8H.1       PUBLIC        LCD_DIN
  C:28BEH         PUBLIC        Font_code
  C:4950H         PUBLIC        LCD5510_Init
  D:00B8H         PUBLIC        IP
  C:5215H         PUBLIC        _LCD_pos_byte
  C:4EFBH         PUBLIC        LCD_clr_scr
  D:00D8H         PUBLIC        CCON
  B:00C8H.4       PUBLIC        LCD_RST
  C:5263H         PUBLIC        _LCD_clr_row
  D:0098H         PUBLIC        SCON
  D:0088H         PUBLIC        TCON
BL51 BANKED LINKER/LOCATER V6.00                                                      07/28/2017  08:56:32  PAGE 36


  B:00C8H.2       PUBLIC        LCD_DC
  D:00F0H         PUBLIC        B
  C:499EH         PUBLIC        _LCD_printsl
  D:00E0H         PUBLIC        ACC
  C:4B01H         PUBLIC        _LCD_printc
  B:00C8H.3       PUBLIC        LCD_CS
  C:4B37H         PUBLIC        _LCD_prints
  C:4F3CH         PUBLIC        _LCD_write_byte
  D:00D0H         PUBLIC        PSW
  -------         PROC          _LCD_WRITE_BYTE
  D:0007H         SYMBOL        wbyte
  D:0005H         SYMBOL        dat_cmd
  -------         DO            
  D:0006H         SYMBOL        i
  -------         ENDDO         
  C:4F3CH         LINE#         115
  C:4F3CH         LINE#         116
  C:4F3CH         LINE#         119
  C:4F3EH         LINE#         120
  C:4F43H         LINE#         122
  C:4F45H         LINE#         123
  C:4F45H         LINE#         124
  C:4F4DH         LINE#         125
  C:4F4FH         LINE#         127
  C:4F51H         LINE#         128
  C:4F55H         LINE#         129
  C:4F57H         LINE#         130
  C:4F59H         LINE#         132
  C:4F5BH         LINE#         133
  -------         ENDPROC       _LCD_WRITE_BYTE
  -------         PROC          LCD_CLR_SCR
  -------         DO            
  D:0002H         SYMBOL        i
  -------         ENDDO         
  C:4EFBH         LINE#         168
  C:4EFBH         LINE#         169
  C:4EFBH         LINE#         172
  C:4F02H         LINE#         173
  C:4F07H         LINE#         175
  C:4F1BH         LINE#         176
  -------         ENDPROC       LCD_CLR_SCR
  -------         PROC          _LCD_CLR_ROW
  D:0007H         SYMBOL        num
  -------         DO            
  D:0004H         SYMBOL        i
  -------         ENDDO         
  C:5263H         LINE#         182
  C:5263H         LINE#         183
  C:5263H         LINE#         186
  C:526AH         LINE#         187
  C:5275H         LINE#         188
  -------         ENDPROC       _LCD_CLR_ROW
  -------         PROC          _LCD_POS_BYTE
  D:0007H         SYMBOL        x
  D:0004H         SYMBOL        y
  C:5215H         LINE#         196
  C:5217H         LINE#         197
BL51 BANKED LINKER/LOCATER V6.00                                                      07/28/2017  08:56:32  PAGE 37


  C:5217H         LINE#         198
  C:521BH         LINE#         199
  C:521FH         LINE#         200
  C:5224H         LINE#         201
  -------         ENDPROC       _LCD_POS_BYTE
  -------         PROC          L?0030
  -------         ENDPROC       L?0030
  -------         PROC          _LCD_PRINTC
  D:0007H         SYMBOL        x
  D:0005H         SYMBOL        y
  D:0003H         SYMBOL        c_dat
  -------         DO            
  D:0004H         SYMBOL        i
  -------         ENDDO         
  C:4B01H         LINE#         209
  C:4B01H         LINE#         210
  C:4B01H         LINE#         213
  C:4B05H         LINE#         214
  C:4B0BH         LINE#         216
  C:4B0EH         LINE#         217
  C:4B36H         LINE#         218
  -------         ENDPROC       _LCD_PRINTC
  -------         PROC          _LCD_PRINTS
  X:057CH         SYMBOL        x
  X:057DH         SYMBOL        y
  X:057EH         SYMBOL        s_dat
  C:4B37H         LINE#         225
  C:4B48H         LINE#         226
  C:4B48H         LINE#         227
  C:4B71H         LINE#         228
  -------         ENDPROC       _LCD_PRINTS
  -------         PROC          _LCD_PRINTSL
  X:0581H         SYMBOL        x
  X:0582H         SYMBOL        y
  X:0583H         SYMBOL        s_dat
  C:499EH         LINE#         235
  C:49AFH         LINE#         236
  C:49AFH         LINE#         237
  C:49C0H         LINE#         238
  C:49C0H         LINE#         239
  C:49C6H         LINE#         240
  C:49D0H         LINE#         241
  C:49DDH         LINE#         242
  C:49E6H         LINE#         243
  C:49E8H         LINE#         244
  -------         ENDPROC       _LCD_PRINTSL
  -------         PROC          LCD5510_INIT
  -------         DO            
  X:05A3H         SYMBOL        GPIO_InitStructure
  -------         ENDDO         
  C:4950H         LINE#         267
  C:4950H         LINE#         268
  C:4950H         LINE#         270
  C:4955H         LINE#         271
  C:4959H         LINE#         272
  C:4964H         LINE#         273
  C:4968H         LINE#         276
BL51 BANKED LINKER/LOCATER V6.00                                                      07/28/2017  08:56:32  PAGE 38


  C:496FH         LINE#         277
  C:4974H         LINE#         278
  C:4979H         LINE#         279
  C:497EH         LINE#         281
  C:4983H         LINE#         282
  C:4988H         LINE#         283
  C:498DH         LINE#         284
  C:4992H         LINE#         285
  C:4995H         LINE#         286
  -------         ENDPROC       LCD5510_INIT
  -------         ENDMOD        LCD5510_V2

  -------         MODULE        FIXEDPULSER
  C:0000H         SYMBOL        _ICE_DUMMY_
  D:0080H         PUBLIC        P0
  D:0090H         PUBLIC        P1
  D:00A0H         PUBLIC        P2
  D:00B0H         PUBLIC        P3
  X:0516H         SYMBOL        pulser1Tmp
  D:00C0H         PUBLIC        P4
  X:0518H         SYMBOL        pulser2Tmp
  D:00C8H         PUBLIC        P5
  D:00E8H         PUBLIC        P6
  D:00F8H         PUBLIC        P7
  D:00A8H         PUBLIC        IE
  X:051AH         SYMBOL        count1Tmp
  X:051CH         SYMBOL        count2Tmp
  C:4CBBH         PUBLIC        PulserInit
  C:508AH         PUBLIC        _closePulser
  D:00B8H         PUBLIC        IP
  D:00D8H         PUBLIC        CCON
  B:0022H.6       SYMBOL        timer2UseBit
  B:0022H.7       SYMBOL        timer3UseBit
  C:5032H         PUBLIC        _openPulser
  D:0098H         PUBLIC        SCON
  D:0088H         PUBLIC        TCON
  C:451AH         SYMBOL        Pulser_1Int
  C:4595H         SYMBOL        Pulser_2Int
  D:00F0H         PUBLIC        B
  D:008EH         PUBLIC        AUXR
  C:52D3H         PUBLIC        _getPulserState
  D:00E0H         PUBLIC        ACC
  D:00D6H         PUBLIC        TH2
  D:00D4H         PUBLIC        TH3
  X:051EH         SYMBOL        tmp
  D:00D7H         PUBLIC        TL2
  D:00D5H         PUBLIC        TL3
  C:39A7H         PUBLIC        _setPulse
  D:00D1H         PUBLIC        T4T3M
  X:0520H         SYMBOL        g_pulser
  D:008FH         PUBLIC        INT_CLKO
  D:00D0H         PUBLIC        PSW
  -------         PROC          _SETPULSE
  D:0003H         SYMBOL        pulser_num
  X:0356H         SYMBOL        Hz
  X:0358H         SYMBOL        count
  -------         DO            
BL51 BANKED LINKER/LOCATER V6.00                                                      07/28/2017  08:56:32  PAGE 39


  X:035CH         SYMBOL        timerTmp
  X:035EH         SYMBOL        TIM_Value
  -------         ENDDO         
  C:39A7H         LINE#         44
  C:39B1H         LINE#         45
  C:39B1H         LINE#         46
  C:39B8H         LINE#         48
  C:39D3H         LINE#         49
  C:39F2H         LINE#         50
  C:39F5H         LINE#         51
  C:39F5H         LINE#         52
  C:3A05H         LINE#         53
  C:3A05H         LINE#         56
  C:3A2CH         LINE#         57
  C:3A2EH         LINE#         58
  C:3A31H         LINE#         59
  C:3A3CH         LINE#         60
  C:3A3EH         LINE#         62
  C:3A40H         LINE#         64
  C:3A40H         LINE#         65
  C:3A42H         LINE#         67
  C:3A42H         LINE#         68
  C:3A44H         LINE#         70
  C:3A44H         LINE#         71
  C:3A54H         LINE#         72
  C:3A54H         LINE#         73
  C:3A7BH         LINE#         74
  C:3A7DH         LINE#         75
  C:3A80H         LINE#         76
  C:3A8BH         LINE#         77
  C:3A8DH         LINE#         79
  C:3A8FH         LINE#         81
  C:3A8FH         LINE#         82
  C:3A91H         LINE#         83
  C:3A91H         LINE#         84
  C:3A91H         LINE#         86
  C:3A92H         LINE#         87
  -------         ENDPROC       _SETPULSE
  -------         PROC          _OPENPULSER
  D:0007H         SYMBOL        pulser_num
  C:5032H         LINE#         88
  C:5032H         LINE#         89
  C:5032H         LINE#         90
  C:5043H         LINE#         92
  C:5046H         LINE#         93
  C:5046H         LINE#         94
  C:5049H         LINE#         97
  C:504BH         LINE#         99
  C:504BH         LINE#         100
  C:504EH         LINE#         101
  C:504EH         LINE#         103
  C:504FH         LINE#         104
  -------         ENDPROC       _OPENPULSER
  -------         PROC          _CLOSEPULSER
  D:0007H         SYMBOL        pulser_num
  C:508AH         LINE#         105
  C:508AH         LINE#         106
BL51 BANKED LINKER/LOCATER V6.00                                                      07/28/2017  08:56:32  PAGE 40


  C:508AH         LINE#         107
  C:508DH         LINE#         108
  C:508DH         LINE#         109
  C:5090H         LINE#         112
  C:5092H         LINE#         114
  C:5092H         LINE#         115
  C:5095H         LINE#         117
  C:5095H         LINE#         118
  C:50A5H         LINE#         119
  C:50A6H         LINE#         121
  -------         ENDPROC       _CLOSEPULSER
  -------         PROC          _GETPULSERSTATE
  D:0007H         SYMBOL        pulser_num
  C:52D3H         LINE#         122
  C:52D3H         LINE#         123
  C:52D3H         LINE#         125
  C:52E4H         LINE#         127
  -------         ENDPROC       _GETPULSERSTATE
  -------         PROC          PULSERINIT
  -------         DO            
  X:02A4H         SYMBOL        GPIO_InitStructure
  -------         ENDDO         
  C:4CBBH         LINE#         128
  C:4CBBH         LINE#         129
  C:4CBBH         LINE#         133
  C:4CC0H         LINE#         134
  C:4CC3H         LINE#         135
  C:4CCDH         LINE#         136
  C:4CD3H         LINE#         137
  C:4CDEH         LINE#         138
  C:4CE3H         LINE#         139
  C:4CE7H         LINE#         143
  -------         ENDPROC       PULSERINIT
  -------         PROC          PULSER_1INT
  C:451AH         LINE#         185
  C:4537H         LINE#         187
  C:456EH         LINE#         188
  C:456EH         LINE#         189
  C:4573H         LINE#         190
  C:457AH         LINE#         191
  C:457AH         LINE#         193
  -------         ENDPROC       PULSER_1INT
  -------         PROC          PULSER_2INT
  C:4595H         LINE#         197
  C:45B2H         LINE#         199
  C:45E9H         LINE#         200
  C:45E9H         LINE#         201
  C:45EEH         LINE#         202
  C:45F5H         LINE#         203
  C:45F5H         LINE#         205
  -------         ENDPROC       PULSER_2INT
  -------         ENDMOD        FIXEDPULSER

  -------         MODULE        DELAY
  C:0000H         SYMBOL        _ICE_DUMMY_
  D:0080H         PUBLIC        P0
  D:0090H         PUBLIC        P1
BL51 BANKED LINKER/LOCATER V6.00                                                      07/28/2017  08:56:32  PAGE 41


  D:00A0H         PUBLIC        P2
  D:00B0H         PUBLIC        P3
  D:00C0H         PUBLIC        P4
  D:00C8H         PUBLIC        P5
  D:00E8H         PUBLIC        P6
  D:00F8H         PUBLIC        P7
  D:00A8H         PUBLIC        IE
  D:00B8H         PUBLIC        IP
  D:00D8H         PUBLIC        CCON
  D:0098H         PUBLIC        SCON
  D:0088H         PUBLIC        TCON
  D:00F0H         PUBLIC        B
  D:00E0H         PUBLIC        ACC
  C:533BH         PUBLIC        _delay_ms
  D:00D0H         PUBLIC        PSW
  -------         PROC          _DELAY_MS
  D:0007H         SYMBOL        ms
  -------         DO            
  D:0004H         SYMBOL        i
  -------         ENDDO         
  C:533BH         LINE#         26
  C:533BH         LINE#         27
  C:533BH         LINE#         30
  C:533BH         LINE#         31
  C:533FH         LINE#         32
  C:5348H         LINE#         33
  C:5348H         LINE#         35
  C:5348H         LINE#         36
  C:5348H         LINE#         37
  C:534AH         LINE#         38
  -------         ENDPROC       _DELAY_MS
  -------         ENDMOD        DELAY

  -------         MODULE        GPIO
  C:0000H         SYMBOL        _ICE_DUMMY_
  D:0093H         PUBLIC        P0M1
  D:0092H         PUBLIC        P1M0
  D:0096H         PUBLIC        P2M0
  D:0091H         PUBLIC        P1M1
  D:0080H         PUBLIC        P0
  D:00B2H         PUBLIC        P3M0
  D:0095H         PUBLIC        P2M1
  D:0090H         PUBLIC        P1
  D:00B4H         PUBLIC        P4M0
  D:00B1H         PUBLIC        P3M1
  D:00A0H         PUBLIC        P2
  D:00CAH         PUBLIC        P5M0
  D:00B3H         PUBLIC        P4M1
  D:00B0H         PUBLIC        P3
  D:00C9H         PUBLIC        P5M1
  D:00C0H         PUBLIC        P4
  D:00C8H         PUBLIC        P5
  D:00E8H         PUBLIC        P6
  D:00F8H         PUBLIC        P7
  D:00A8H         PUBLIC        IE
  D:00B8H         PUBLIC        IP
  D:00D8H         PUBLIC        CCON
BL51 BANKED LINKER/LOCATER V6.00                                                      07/28/2017  08:56:32  PAGE 42


  D:0098H         PUBLIC        SCON
  D:0088H         PUBLIC        TCON
  D:00F0H         PUBLIC        B
  D:00E0H         PUBLIC        ACC
  C:2F3AH         PUBLIC        _GPIO_Inilize
  D:00D0H         PUBLIC        PSW
  C:53F1H         PUBLIC        _setPinState
  D:0094H         PUBLIC        P0M0
  -------         PROC          _SETPINSTATE
  D:0007H         SYMBOL        Pin
  B:0023H.1       SYMBOL        State
  C:53F1H         LINE#         18
  C:53F1H         LINE#         19
  C:53F1H         LINE#         20
  C:53F3H         LINE#         23
  -------         ENDPROC       _SETPINSTATE
  -------         PROC          _GPIO_INILIZE
  D:0007H         SYMBOL        GPIO
  D:0001H         SYMBOL        GPIOx
  C:2F3AH         LINE#         31
  C:2F3AH         LINE#         32
  C:2F3AH         LINE#         33
  C:2F40H         LINE#         34
  C:2F40H         LINE#         35
  C:2F43H         LINE#         36
  C:2F43H         LINE#         37
  C:2F4CH         LINE#         38
  C:2F4CH         LINE#         39
  C:2F4FH         LINE#         40
  C:2F4FH         LINE#         41
  C:2F52H         LINE#         42
  C:2F52H         LINE#         43
  C:2F55H         LINE#         44
  C:2F55H         LINE#         45
  C:2F60H         LINE#         46
  C:2F60H         LINE#         47
  C:2F66H         LINE#         48
  C:2F66H         LINE#         49
  C:2F71H         LINE#         50
  C:2F71H         LINE#         51
  C:2F78H         LINE#         52
  C:2F78H         LINE#         53
  C:2F82H         LINE#         54
  C:2F82H         LINE#         55
  C:2F86H         LINE#         56
  C:2F86H         LINE#         57
  C:2F93H         LINE#         58
  C:2F93H         LINE#         59
  C:2F93H         LINE#         60
  C:2F98H         LINE#         61
  C:2F98H         LINE#         62
  C:2F9EH         LINE#         63
  C:2F9EH         LINE#         64
  C:2FA9H         LINE#         65
  C:2FA9H         LINE#         66
  C:2FADH         LINE#         67
  C:2FADH         LINE#         68
BL51 BANKED LINKER/LOCATER V6.00                                                      07/28/2017  08:56:32  PAGE 43


  C:2FB8H         LINE#         69
  C:2FB8H         LINE#         70
  C:2FBEH         LINE#         71
  C:2FBEH         LINE#         72
  C:2FC8H         LINE#         73
  C:2FC8H         LINE#         74
  C:2FCEH         LINE#         75
  C:2FCEH         LINE#         76
  C:2FDBH         LINE#         77
  C:2FDBH         LINE#         78
  C:2FDBH         LINE#         79
  C:2FE0H         LINE#         80
  C:2FE0H         LINE#         81
  C:2FE6H         LINE#         82
  C:2FE6H         LINE#         83
  C:2FF1H         LINE#         84
  C:2FF1H         LINE#         85
  C:2FF5H         LINE#         86
  C:2FF5H         LINE#         87
  C:3000H         LINE#         88
  C:3000H         LINE#         89
  C:3006H         LINE#         90
  C:3006H         LINE#         91
  C:3010H         LINE#         92
  C:3010H         LINE#         93
  C:3016H         LINE#         94
  C:3016H         LINE#         95
  C:3023H         LINE#         96
  C:3023H         LINE#         97
  C:3023H         LINE#         98
  C:3028H         LINE#         99
  C:3028H         LINE#         100
  C:302EH         LINE#         101
  C:302EH         LINE#         102
  C:3039H         LINE#         103
  C:3039H         LINE#         104
  C:303DH         LINE#         105
  C:303DH         LINE#         106
  C:3048H         LINE#         107
  C:3048H         LINE#         108
  C:304EH         LINE#         109
  C:304EH         LINE#         110
  C:3058H         LINE#         111
  C:3058H         LINE#         112
  C:305EH         LINE#         113
  C:305EH         LINE#         114
  C:306BH         LINE#         115
  C:306BH         LINE#         116
  C:306BH         LINE#         117
  C:3070H         LINE#         118
  C:3070H         LINE#         119
  C:3076H         LINE#         120
  C:3076H         LINE#         121
  C:3081H         LINE#         122
  C:3081H         LINE#         123
  C:3085H         LINE#         124
  C:3085H         LINE#         125
BL51 BANKED LINKER/LOCATER V6.00                                                      07/28/2017  08:56:32  PAGE 44


  C:3090H         LINE#         126
  C:3090H         LINE#         127
  C:3096H         LINE#         128
  C:3096H         LINE#         129
  C:30A0H         LINE#         130
  C:30A0H         LINE#         131
  C:30A6H         LINE#         132
  C:30A6H         LINE#         133
  C:30B3H         LINE#         134
  C:30B3H         LINE#         135
  C:30B3H         LINE#         136
  C:30B8H         LINE#         137
  C:30B8H         LINE#         138
  C:30BEH         LINE#         139
  C:30BEH         LINE#         140
  C:30C9H         LINE#         141
  C:30C9H         LINE#         142
  C:30CDH         LINE#         143
  C:30CDH         LINE#         144
  C:30D8H         LINE#         145
  C:30D8H         LINE#         146
  C:30DEH         LINE#         147
  C:30DEH         LINE#         148
  C:30E8H         LINE#         149
  C:30E8H         LINE#         150
  C:30EEH         LINE#         151
  C:30EEH         LINE#         152
  C:30FBH         LINE#         153
  C:30FBH         LINE#         154
  C:30FBH         LINE#         155
  C:30FDH         LINE#         156
  -------         ENDPROC       _GPIO_INILIZE
  -------         ENDMOD        GPIO

  -------         MODULE        STC15_PWM
  C:0000H         SYMBOL        _ICE_DUMMY_
  C:516BH         PUBLIC        _get_PWM_period
  D:0080H         PUBLIC        P0
  C:414CH         SYMBOL        _PWM_SET_T12_PERIOD
  D:0090H         PUBLIC        P1
  D:00A0H         PUBLIC        P2
  D:00B0H         PUBLIC        P3
  D:00C0H         PUBLIC        P4
  D:00C8H         PUBLIC        P5
  D:00E8H         PUBLIC        P6
  D:00F8H         PUBLIC        P7
  C:5319H         PUBLIC        _setPWM_DIV
  C:47A0H         PUBLIC        _set_PWM_period
  D:00F5H         PUBLIC        PWMCR
  D:00BAH         PUBLIC        P_SW2
  D:00A8H         PUBLIC        IE
  D:00F7H         PUBLIC        PWMFDCR
  D:00B8H         PUBLIC        IP
  C:4E4BH         PUBLIC        _close_PWM_N
  D:00D8H         PUBLIC        CCON
  C:5397H         PUBLIC        close_PWM_ALL
  C:2281H         PUBLIC        _PWM_Inilize
BL51 BANKED LINKER/LOCATER V6.00                                                      07/28/2017  08:56:32  PAGE 45


  X:03E9H         SYMBOL        PWM_N_INFO
  D:0098H         PUBLIC        SCON
  D:0088H         PUBLIC        TCON
  C:4D13H         PUBLIC        _open_PWM_N
  D:00F0H         PUBLIC        B
  C:538DH         PUBLIC        open_PWM_ALL
  D:00F1H         PUBLIC        PWMCFG
  D:00E0H         PUBLIC        ACC
  C:52E5H         PUBLIC        _get_PWM_N_state
  C:3A93H         PUBLIC        _set_PWM_duty
  C:4F7BH         SYMBOL        _PWM_SET_PERIOD
  C:5185H         PUBLIC        _get_PWM_N_duty
  D:00D0H         PUBLIC        PSW
  C:532AH         PUBLIC        _getPWM_DIV
  -------         PROC          _SET_PWM_PERIOD
  D:0003H         SYMBOL        PWM_N
  X:05A5H         SYMBOL        Hz
  C:47A0H         LINE#         51
  C:47AAH         LINE#         52
  C:47AAH         LINE#         53
  C:47C6H         LINE#         54
  C:47C9H         LINE#         55
  C:47CCH         LINE#         56
  C:47FDH         LINE#         59
  C:4800H         LINE#         62
  -------         ENDPROC       _SET_PWM_PERIOD
  -------         PROC          _GET_PWM_PERIOD
  D:0007H         SYMBOL        PWM_N
  C:516BH         LINE#         72
  C:516BH         LINE#         73
  C:516BH         LINE#         74
  C:5184H         LINE#         75
  -------         ENDPROC       _GET_PWM_PERIOD
  -------         PROC          _SET_PWM_DUTY
  X:0586H         SYMBOL        PWM_N
  X:0587H         SYMBOL        duty
  C:3A93H         LINE#         89
  C:3A98H         LINE#         90
  C:3A98H         LINE#         91
  C:3AB3H         LINE#         92
  C:3AB3H         LINE#         93
  C:3ABDH         LINE#         94
  C:3ABDH         LINE#         95
  C:3AD8H         LINE#         96
  C:3AD8H         LINE#         97
  C:3AE2H         LINE#         98
  C:3AE2H         LINE#         99
  C:3B05H         LINE#         100
  C:3B08H         LINE#         101
  C:3B73H         LINE#         104
  C:3B76H         LINE#         105
  -------         ENDPROC       _SET_PWM_DUTY
  -------         PROC          _GET_PWM_N_DUTY
  D:0007H         SYMBOL        PWM_N
  C:5185H         LINE#         114
  C:5185H         LINE#         115
  C:5185H         LINE#         116
BL51 BANKED LINKER/LOCATER V6.00                                                      07/28/2017  08:56:32  PAGE 46


  C:519EH         LINE#         117
  -------         ENDPROC       _GET_PWM_N_DUTY
  -------         PROC          _SETPWM_DIV
  D:0007H         SYMBOL        PWM_N
  D:0005H         SYMBOL        DIV
  C:5319H         LINE#         128
  C:5319H         LINE#         129
  C:5319H         LINE#         130
  C:5329H         LINE#         131
  -------         ENDPROC       _SETPWM_DIV
  -------         PROC          _GETPWM_DIV
  D:0007H         SYMBOL        PWM_N
  C:532AH         LINE#         140
  C:532AH         LINE#         141
  C:532AH         LINE#         142
  C:533AH         LINE#         143
  -------         ENDPROC       _GETPWM_DIV
  -------         PROC          OPEN_PWM_ALL
  C:538DH         LINE#         152
  C:538DH         LINE#         153
  C:538DH         LINE#         154
  C:5390H         LINE#         155
  C:5393H         LINE#         156
  C:5396H         LINE#         157
  -------         ENDPROC       OPEN_PWM_ALL
  -------         PROC          CLOSE_PWM_ALL
  C:5397H         LINE#         166
  C:5397H         LINE#         167
  C:5397H         LINE#         168
  C:539AH         LINE#         169
  C:539DH         LINE#         170
  C:53A0H         LINE#         172
  -------         ENDPROC       CLOSE_PWM_ALL
  -------         PROC          _OPEN_PWM_N
  D:0007H         SYMBOL        PWM_N
  C:4D13H         LINE#         181
  C:4D13H         LINE#         182
  C:4D13H         LINE#         183
  C:4D16H         LINE#         184
  C:4D23H         LINE#         185
  C:4D34H         LINE#         186
  C:4D37H         LINE#         187
  C:4D3AH         LINE#         190
  -------         ENDPROC       _OPEN_PWM_N
  -------         PROC          _CLOSE_PWM_N
  D:0007H         SYMBOL        PWM_N
  C:4E4BH         LINE#         199
  C:4E4BH         LINE#         200
  C:4E4BH         LINE#         201
  C:4E4EH         LINE#         202
  C:4E5CH         LINE#         203
  C:4E6CH         LINE#         204
  C:4E6FH         LINE#         206
  -------         ENDPROC       _CLOSE_PWM_N
  -------         PROC          _GET_PWM_N_STATE
  D:0007H         SYMBOL        PWM_N
  C:52E5H         LINE#         215
BL51 BANKED LINKER/LOCATER V6.00                                                      07/28/2017  08:56:32  PAGE 47


  C:52E5H         LINE#         216
  C:52E5H         LINE#         218
  C:52F6H         LINE#         219
  -------         ENDPROC       _GET_PWM_N_STATE
  -------         PROC          _PWM_INILIZE
  X:05A7H         SYMBOL        PWM_N
  D:0001H         SYMBOL        PWMx
  -------         DO            
  X:05A8H         SYMBOL        i
  -------         ENDDO         
  C:2281H         LINE#         227
  C:2286H         LINE#         228
  C:2286H         LINE#         229
  C:2289H         LINE#         230
  C:2293H         LINE#         231
  C:2293H         LINE#         232
  C:22A8H         LINE#         233
  C:22BCH         LINE#         234
  C:22D1H         LINE#         235
  C:22E5H         LINE#         236
  C:22EDH         LINE#         238
  C:22F0H         LINE#         239
  C:22F6H         LINE#         240
  C:22F6H         LINE#         241
  C:22F9H         LINE#         242
  C:22FBH         LINE#         244
  C:22FBH         LINE#         245
  C:22FEH         LINE#         246
  C:22FEH         LINE#         247
  C:2307H         LINE#         248
  C:2307H         LINE#         249
  C:2319H         LINE#         250
  C:231BH         LINE#         252
  C:231BH         LINE#         253
  C:232EH         LINE#         254
  C:232EH         LINE#         255
  C:2337H         LINE#         256
  C:2337H         LINE#         257
  C:233AH         LINE#         258
  C:233CH         LINE#         260
  C:233CH         LINE#         261
  C:233FH         LINE#         262
  C:233FH         LINE#         263
  C:2348H         LINE#         264
  C:2348H         LINE#         265
  C:235AH         LINE#         266
  C:235CH         LINE#         268
  C:235CH         LINE#         269
  C:236FH         LINE#         270
  C:236FH         LINE#         271
  C:2378H         LINE#         272
  C:2378H         LINE#         273
  C:237BH         LINE#         274
  C:237DH         LINE#         276
  C:237DH         LINE#         277
  C:2380H         LINE#         278
  C:2380H         LINE#         279
BL51 BANKED LINKER/LOCATER V6.00                                                      07/28/2017  08:56:32  PAGE 48


  C:2389H         LINE#         280
  C:2389H         LINE#         281
  C:238CH         LINE#         282
  C:238EH         LINE#         284
  C:238EH         LINE#         285
  C:2391H         LINE#         286
  C:2391H         LINE#         287
  C:239AH         LINE#         288
  C:239AH         LINE#         289
  C:239DH         LINE#         290
  C:239FH         LINE#         292
  C:239FH         LINE#         293
  C:23A2H         LINE#         294
  C:23A2H         LINE#         295
  C:23ABH         LINE#         296
  C:23ABH         LINE#         297
  C:23AEH         LINE#         298
  C:23B0H         LINE#         300
  C:23B0H         LINE#         301
  C:23B3H         LINE#         302
  C:23B3H         LINE#         303
  C:23BCH         LINE#         304
  C:23BCH         LINE#         305
  C:23BFH         LINE#         306
  C:23C1H         LINE#         308
  C:23C1H         LINE#         309
  C:23C4H         LINE#         310
  C:23C4H         LINE#         312
  C:23CFH         LINE#         313
  C:23CFH         LINE#         314
  C:23D3H         LINE#         315
  C:23D5H         LINE#         317
  C:23D5H         LINE#         318
  C:23D9H         LINE#         319
  C:23D9H         LINE#         321
  C:23F0H         LINE#         322
  C:2416H         LINE#         323
  C:2416H         LINE#         324
  C:2416H         LINE#         325
  C:2416H         LINE#         326
  C:2421H         LINE#         327
  C:2421H         LINE#         328
  C:2425H         LINE#         329
  C:2427H         LINE#         331
  C:2427H         LINE#         332
  C:242BH         LINE#         333
  C:242BH         LINE#         334
  C:2437H         LINE#         335
  C:2437H         LINE#         336
  C:243BH         LINE#         337
  C:243DH         LINE#         339
  C:243DH         LINE#         340
  C:2441H         LINE#         341
  C:2441H         LINE#         342
  C:244DH         LINE#         343
  C:244DH         LINE#         344
  C:2451H         LINE#         345
BL51 BANKED LINKER/LOCATER V6.00                                                      07/28/2017  08:56:32  PAGE 49


  C:2453H         LINE#         347
  C:2453H         LINE#         348
  C:2457H         LINE#         349
  C:2457H         LINE#         350
  C:2463H         LINE#         351
  C:2463H         LINE#         352
  C:2463H         LINE#         353
  C:2466H         LINE#         355
  C:2466H         LINE#         356
  C:2466H         LINE#         357
  C:2466H         LINE#         358
  C:2466H         LINE#         359
  C:2469H         LINE#         360
  C:2469H         LINE#         361
  C:2469H         LINE#         362
  C:2474H         LINE#         363
  C:2474H         LINE#         364
  C:2478H         LINE#         365
  C:247AH         LINE#         367
  C:247AH         LINE#         368
  C:247EH         LINE#         369
  C:247EH         LINE#         370
  C:248AH         LINE#         371
  C:248AH         LINE#         372
  C:248EH         LINE#         373
  C:2490H         LINE#         375
  C:2490H         LINE#         376
  C:2494H         LINE#         377
  C:2494H         LINE#         378
  C:24A0H         LINE#         379
  C:24A0H         LINE#         380
  C:24A4H         LINE#         381
  C:24A6H         LINE#         383
  C:24A6H         LINE#         384
  C:24AAH         LINE#         385
  C:24AAH         LINE#         386
  C:24B6H         LINE#         387
  C:24B6H         LINE#         388
  C:24B6H         LINE#         389
  C:24B9H         LINE#         391
  C:24B9H         LINE#         392
  C:24B9H         LINE#         393
  C:24B9H         LINE#         394
  C:24B9H         LINE#         395
  C:24BCH         LINE#         396
  C:24BCH         LINE#         397
  C:24BCH         LINE#         398
  C:24C7H         LINE#         399
  C:24C7H         LINE#         400
  C:24CBH         LINE#         401
  C:24CDH         LINE#         403
  C:24CDH         LINE#         404
  C:24D1H         LINE#         405
  C:24D1H         LINE#         406
  C:24DDH         LINE#         407
  C:24DDH         LINE#         408
  C:24E1H         LINE#         409
BL51 BANKED LINKER/LOCATER V6.00                                                      07/28/2017  08:56:32  PAGE 50


  C:24E3H         LINE#         411
  C:24E3H         LINE#         412
  C:24E7H         LINE#         413
  C:24E7H         LINE#         414
  C:24F3H         LINE#         415
  C:24F3H         LINE#         416
  C:24F7H         LINE#         417
  C:24F9H         LINE#         419
  C:24F9H         LINE#         420
  C:24FDH         LINE#         421
  C:24FDH         LINE#         422
  C:2509H         LINE#         423
  C:2509H         LINE#         424
  C:2509H         LINE#         425
  C:250CH         LINE#         427
  C:250CH         LINE#         428
  C:250CH         LINE#         429
  C:250CH         LINE#         430
  C:250CH         LINE#         431
  C:250FH         LINE#         432
  C:250FH         LINE#         433
  C:250FH         LINE#         434
  C:251AH         LINE#         435
  C:251AH         LINE#         436
  C:251EH         LINE#         437
  C:2520H         LINE#         439
  C:2520H         LINE#         440
  C:2524H         LINE#         441
  C:2524H         LINE#         442
  C:2530H         LINE#         443
  C:2530H         LINE#         444
  C:2534H         LINE#         445
  C:2536H         LINE#         447
  C:2536H         LINE#         448
  C:253AH         LINE#         449
  C:253AH         LINE#         450
  C:2546H         LINE#         451
  C:2546H         LINE#         452
  C:254AH         LINE#         453
  C:254CH         LINE#         455
  C:254CH         LINE#         456
  C:2550H         LINE#         457
  C:2550H         LINE#         458
  C:255CH         LINE#         459
  C:255CH         LINE#         460
  C:255CH         LINE#         461
  C:255FH         LINE#         463
  C:255FH         LINE#         464
  C:255FH         LINE#         465
  C:255FH         LINE#         466
  C:255FH         LINE#         467
  C:2562H         LINE#         468
  C:2562H         LINE#         469
  C:2562H         LINE#         470
  C:256DH         LINE#         471
  C:256DH         LINE#         472
  C:2571H         LINE#         473
BL51 BANKED LINKER/LOCATER V6.00                                                      07/28/2017  08:56:32  PAGE 51


  C:2573H         LINE#         475
  C:2573H         LINE#         476
  C:2577H         LINE#         477
  C:2577H         LINE#         478
  C:2583H         LINE#         479
  C:2583H         LINE#         480
  C:2587H         LINE#         481
  C:2589H         LINE#         483
  C:2589H         LINE#         484
  C:258DH         LINE#         485
  C:258DH         LINE#         486
  C:2599H         LINE#         487
  C:2599H         LINE#         488
  C:259DH         LINE#         489
  C:259FH         LINE#         491
  C:259FH         LINE#         492
  C:25A3H         LINE#         493
  C:25A3H         LINE#         494
  C:25AFH         LINE#         495
  C:25AFH         LINE#         496
  C:25AFH         LINE#         497
  C:25B1H         LINE#         499
  C:25B1H         LINE#         500
  C:25B1H         LINE#         501
  C:25B1H         LINE#         502
  C:25B1H         LINE#         503
  C:25B3H         LINE#         504
  C:25B3H         LINE#         505
  C:25B3H         LINE#         506
  C:25BEH         LINE#         507
  C:25BEH         LINE#         508
  C:25C2H         LINE#         509
  C:25C4H         LINE#         511
  C:25C4H         LINE#         512
  C:25C8H         LINE#         513
  C:25C8H         LINE#         514
  C:25D4H         LINE#         515
  C:25D4H         LINE#         516
  C:25D8H         LINE#         517
  C:25DAH         LINE#         519
  C:25DAH         LINE#         520
  C:25DEH         LINE#         521
  C:25DEH         LINE#         522
  C:25EAH         LINE#         523
  C:25EAH         LINE#         524
  C:25EEH         LINE#         525
  C:25F0H         LINE#         527
  C:25F0H         LINE#         528
  C:25F4H         LINE#         529
  C:25F4H         LINE#         530
  C:2600H         LINE#         531
  C:2600H         LINE#         532
  C:2604H         LINE#         533
  C:2606H         LINE#         535
  C:2606H         LINE#         536
  C:260AH         LINE#         537
  C:260AH         LINE#         538
BL51 BANKED LINKER/LOCATER V6.00                                                      07/28/2017  08:56:32  PAGE 52


  C:260AH         LINE#         539
  C:260AH         LINE#         540
  C:260AH         LINE#         542
  C:260AH         LINE#         543
  C:260AH         LINE#         544
  C:2613H         LINE#         545
  C:2613H         LINE#         546
  C:2616H         LINE#         547
  C:2617H         LINE#         549
  C:2617H         LINE#         550
  C:261AH         LINE#         551
  C:261AH         LINE#         552
  -------         ENDPROC       _PWM_INILIZE
  -------         PROC          _PWM_SET_PERIOD
  D:0006H         SYMBOL        period
  C:4F7BH         LINE#         563
  C:4F7BH         LINE#         564
  C:4F7BH         LINE#         565
  C:4F86H         LINE#         566
  C:4F86H         LINE#         567
  C:4F88H         LINE#         568
  C:4F8DH         LINE#         569
  C:4F90H         LINE#         570
  C:4F90H         LINE#         572
  C:4F90H         LINE#         573
  C:4F93H         LINE#         574
  C:4F99H         LINE#         575
  C:4F99H         LINE#         576
  -------         ENDPROC       _PWM_SET_PERIOD
  -------         PROC          _PWM_SET_T12_PERIOD
  D:0007H         SYMBOL        PWM_N
  D:0004H         SYMBOL        period1
  D:0002H         SYMBOL        period2
  C:414CH         LINE#         589
  C:414CH         LINE#         590
  C:414CH         LINE#         591
  C:4163H         LINE#         592
  C:4163H         LINE#         593
  C:4163H         LINE#         594
  C:4168H         LINE#         595
  C:416DH         LINE#         596
  C:4172H         LINE#         597
  C:4176H         LINE#         598
  C:4178H         LINE#         599
  C:4178H         LINE#         600
  C:4178H         LINE#         601
  C:417DH         LINE#         602
  C:4182H         LINE#         603
  C:4187H         LINE#         604
  C:418BH         LINE#         605
  C:418DH         LINE#         606
  C:418DH         LINE#         607
  C:418DH         LINE#         608
  C:4192H         LINE#         609
  C:4197H         LINE#         610
  C:419CH         LINE#         611
  C:41A0H         LINE#         612
BL51 BANKED LINKER/LOCATER V6.00                                                      07/28/2017  08:56:32  PAGE 53


  C:41A2H         LINE#         613
  C:41A2H         LINE#         614
  C:41A2H         LINE#         615
  C:41A7H         LINE#         616
  C:41ACH         LINE#         617
  C:41B1H         LINE#         618
  C:41B5H         LINE#         619
  C:41B7H         LINE#         620
  C:41B7H         LINE#         621
  C:41B7H         LINE#         622
  C:41BCH         LINE#         623
  C:41C1H         LINE#         624
  C:41C6H         LINE#         625
  C:41CAH         LINE#         626
  C:41CCH         LINE#         627
  C:41CCH         LINE#         628
  C:41CCH         LINE#         629
  C:41D1H         LINE#         630
  C:41D6H         LINE#         631
  C:41DBH         LINE#         632
  C:41E0H         LINE#         633
  C:41E3H         LINE#         634
  C:41E3H         LINE#         635
  C:41E3H         LINE#         636
  C:41E5H         LINE#         637
  C:41E5H         LINE#         638
  C:41E5H         LINE#         639
  -------         ENDPROC       _PWM_SET_T12_PERIOD
  -------         ENDMOD        STC15_PWM

  -------         MODULE        TIMER
  C:0000H         SYMBOL        _ICE_DUMMY_
  D:0080H         PUBLIC        P0
  D:0090H         PUBLIC        P1
  D:00A0H         PUBLIC        P2
  D:00B0H         PUBLIC        P3
  D:00C0H         PUBLIC        P4
  D:00C8H         PUBLIC        P5
  D:00E8H         PUBLIC        P6
  D:00F8H         PUBLIC        P7
  X:052EH         SYMBOL        minutes
  X:052FH         SYMBOL        millis
  D:00A8H         PUBLIC        IE
  C:5229H         PUBLIC        _restartTimer
  X:0531H         SYMBOL        micros
  C:53CCH         PUBLIC        getSeconds
  D:00B8H         PUBLIC        IP
  C:519FH         PUBLIC        _getTimerout
  D:00D8H         PUBLIC        CCON
  C:53D2H         PUBLIC        getMinutes
  C:53AAH         PUBLIC        getMillis
  X:0533H         SYMBOL        days
  C:53A1H         PUBLIC        getMicros
  X:0534H         SYMBOL        hours
  D:0098H         PUBLIC        SCON
  D:0089H         PUBLIC        TMOD
  D:0088H         PUBLIC        TCON
BL51 BANKED LINKER/LOCATER V6.00                                                      07/28/2017  08:56:32  PAGE 54


  C:4F9AH         PUBLIC        _isExpiredTimer
  X:0535H         PUBLIC        Timer1_state
  C:4E70H         PUBLIC        _setTimeout
  X:0536H         PUBLIC        Timer2_state
  C:4858H         PUBLIC        timerInit
  C:2B1CH         SYMBOL        _Timer_Inilize
  D:00AFH         PUBLIC        IE2
  C:4FB9H         PUBLIC        _isStopped
  D:00F0H         PUBLIC        B
  D:008EH         PUBLIC        AUXR
  C:50A7H         PUBLIC        _isActiveTimer
  D:00E0H         PUBLIC        ACC
  B:00A8H.1       PUBLIC        ET0
  B:00A8H.3       PUBLIC        ET1
  D:008CH         PUBLIC        TH0
  C:5368H         PUBLIC        _onRestartTimer
  C:535AH         PUBLIC        _stopTimer
  D:008DH         PUBLIC        TH1
  X:0537H         SYMBOL        Timer1_temp
  D:00D6H         PUBLIC        TH2
  X:0539H         SYMBOL        Timer2_temp
  D:00D4H         PUBLIC        TH3
  D:00D2H         PUBLIC        TH4
  D:008AH         PUBLIC        TL0
  D:008BH         PUBLIC        TL1
  D:00D7H         PUBLIC        TL2
  D:00D5H         PUBLIC        TL3
  B:00B8H.1       PUBLIC        PT0
  D:00D3H         PUBLIC        TL4
  C:53DEH         PUBLIC        getDays
  B:00B8H.3       PUBLIC        PT1
  C:53D8H         PUBLIC        getHours
  B:0088H.4       PUBLIC        TR0
  C:51B9H         PUBLIC        _getTimerHertz
  B:0088H.6       PUBLIC        TR1
  D:00D1H         PUBLIC        T4T3M
  X:053BH         PUBLIC        timer1_struct
  X:053FH         PUBLIC        timer2_struct
  C:5134H         PUBLIC        _setTimerHertz
  X:0543H         SYMBOL        seconds
  D:008FH         PUBLIC        INT_CLKO
  D:00D0H         PUBLIC        PSW
  -------         PROC          TIMERINIT
  -------         DO            
  X:028CH         SYMBOL        USER_Timer
  X:0294H         SYMBOL        Pulser_1_Timer
  X:029CH         SYMBOL        Pulser_2_Timer
  X:02A4H         SYMBOL        Error_Code
  -------         ENDDO         
  C:4858H         LINE#         84
  C:4858H         LINE#         85
  C:4858H         LINE#         89
  C:485DH         LINE#         92
  C:4861H         LINE#         93
  C:4863H         LINE#         94
  C:4865H         LINE#         95
  C:4867H         LINE#         96
BL51 BANKED LINKER/LOCATER V6.00                                                      07/28/2017  08:56:32  PAGE 55


  C:4869H         LINE#         97
  C:486DH         LINE#         98
  C:4877H         LINE#         100
  C:487CH         LINE#         101
  C:487FH         LINE#         102
  C:4881H         LINE#         103
  C:4883H         LINE#         105
  C:4888H         LINE#         108
  C:488AH         LINE#         109
  C:488DH         LINE#         110
  C:488FH         LINE#         111
  C:4891H         LINE#         113
  C:4896H         LINE#         115
  C:48A1H         LINE#         116
  -------         ENDPROC       TIMERINIT
  -------         PROC          _SETTIMEOUT
  D:0007H         SYMBOL        whichTimer
  D:0004H         SYMBOL        time
  C:4E70H         LINE#         173
  C:4E70H         LINE#         174
  C:4E70H         LINE#         175
  C:4E7AH         LINE#         176
  C:4E7AH         LINE#         177
  C:4E82H         LINE#         178
  C:4E82H         LINE#         180
  C:4E82H         LINE#         181
  C:4E82H         LINE#         182
  C:4E8AH         LINE#         183
  C:4E8AH         LINE#         184
  C:4E8AH         LINE#         185
  C:4E8AH         LINE#         186
  C:4E94H         LINE#         187
  C:4E94H         LINE#         188
  C:4E94H         LINE#         189
  C:4E94H         LINE#         190
  C:4E94H         LINE#         191
  C:4E94H         LINE#         192
  -------         ENDPROC       _SETTIMEOUT
  -------         PROC          _GETTIMEROUT
  D:0007H         SYMBOL        whichTimer
  C:519FH         LINE#         201
  C:519FH         LINE#         202
  C:519FH         LINE#         203
  C:51A7H         LINE#         204
  C:51A7H         LINE#         206
  C:51A7H         LINE#         207
  C:51A7H         LINE#         208
  C:51ACH         LINE#         209
  C:51ACH         LINE#         210
  C:51ACH         LINE#         211
  C:51ACH         LINE#         212
  C:51ACH         LINE#         213
  C:51B5H         LINE#         214
  C:51B5H         LINE#         215
  C:51B5H         LINE#         217
  C:51B8H         LINE#         218
  C:51B8H         LINE#         220
BL51 BANKED LINKER/LOCATER V6.00                                                      07/28/2017  08:56:32  PAGE 56


  -------         ENDPROC       _GETTIMEROUT
  -------         PROC          _SETTIMERHERTZ
  D:0007H         SYMBOL        whichTimer
  D:0004H         SYMBOL        Hz
  C:5134H         LINE#         231
  C:5134H         LINE#         232
  C:5134H         LINE#         233
  C:513CH         LINE#         234
  C:513CH         LINE#         236
  C:513CH         LINE#         237
  C:513CH         LINE#         238
  C:5144H         LINE#         239
  C:5144H         LINE#         240
  C:5145H         LINE#         241
  C:5145H         LINE#         242
  C:5145H         LINE#         243
  C:514FH         LINE#         244
  C:514FH         LINE#         245
  C:514FH         LINE#         247
  C:514FH         LINE#         250
  -------         ENDPROC       _SETTIMERHERTZ
  -------         PROC          _GETTIMERHERTZ
  D:0007H         SYMBOL        whichTimer
  C:51B9H         LINE#         251
  C:51B9H         LINE#         252
  C:51B9H         LINE#         253
  C:51C1H         LINE#         254
  C:51C1H         LINE#         256
  C:51C1H         LINE#         257
  C:51C1H         LINE#         258
  C:51C1H         LINE#         259
  C:51C6H         LINE#         260
  C:51C6H         LINE#         261
  C:51C6H         LINE#         262
  C:51C6H         LINE#         263
  C:51C6H         LINE#         264
  C:51CFH         LINE#         265
  C:51CFH         LINE#         266
  C:51CFH         LINE#         267
  C:51D2H         LINE#         268
  C:51D2H         LINE#         269
  -------         ENDPROC       _GETTIMERHERTZ
  -------         PROC          _STOPTIMER
  D:0007H         SYMBOL        whichTimer
  C:535AH         LINE#         279
  C:535AH         LINE#         280
  C:535AH         LINE#         281
  C:535EH         LINE#         282
  C:535EH         LINE#         283
  C:535EH         LINE#         284
  C:535EH         LINE#         285
  C:5361H         LINE#         286
  C:5367H         LINE#         288
  C:5367H         LINE#         289
  C:5367H         LINE#         290
  C:5367H         LINE#         291
  C:5367H         LINE#         295
BL51 BANKED LINKER/LOCATER V6.00                                                      07/28/2017  08:56:32  PAGE 57


  C:5367H         LINE#         296
  C:5367H         LINE#         297
  C:5367H         LINE#         299
  -------         ENDPROC       _STOPTIMER
  -------         PROC          _ISACTIVETIMER
  D:0007H         SYMBOL        whichTimer
  C:50A7H         LINE#         309
  C:50A7H         LINE#         310
  C:50A7H         LINE#         311
  C:50AFH         LINE#         312
  C:50AFH         LINE#         313
  C:50AFH         LINE#         314
  C:50AFH         LINE#         315
  C:50B9H         LINE#         317
  C:50B9H         LINE#         318
  C:50B9H         LINE#         319
  C:50B9H         LINE#         320
  C:50C3H         LINE#         322
  C:50C3H         LINE#         323
  C:50C3H         LINE#         324
  C:50C3H         LINE#         325
  -------         ENDPROC       _ISACTIVETIMER
  -------         PROC          _ISEXPIREDTIMER
  D:0007H         SYMBOL        whichTimer
  C:4F9AH         LINE#         335
  C:4F9AH         LINE#         336
  C:4F9AH         LINE#         337
  C:4FA2H         LINE#         338
  C:4FA2H         LINE#         339
  C:4FA2H         LINE#         340
  C:4FA2H         LINE#         341
  C:4FADH         LINE#         342
  C:4FADH         LINE#         343
  C:4FADH         LINE#         344
  C:4FADH         LINE#         345
  C:4FB8H         LINE#         346
  C:4FB8H         LINE#         347
  C:4FB8H         LINE#         348
  C:4FB8H         LINE#         351
  -------         ENDPROC       _ISEXPIREDTIMER
  -------         PROC          _ISSTOPPED
  D:0007H         SYMBOL        whichtimer
  C:4FB9H         LINE#         361
  C:4FB9H         LINE#         362
  C:4FB9H         LINE#         363
  C:4FC1H         LINE#         364
  C:4FC1H         LINE#         365
  C:4FC1H         LINE#         366
  C:4FC1H         LINE#         367
  C:4FCCH         LINE#         368
  C:4FCCH         LINE#         369
  C:4FCCH         LINE#         370
  C:4FCCH         LINE#         371
  C:4FD7H         LINE#         372
  C:4FD7H         LINE#         373
  C:4FD7H         LINE#         374
  C:4FD7H         LINE#         375
BL51 BANKED LINKER/LOCATER V6.00                                                      07/28/2017  08:56:32  PAGE 58


  -------         ENDPROC       _ISSTOPPED
  -------         PROC          _RESTARTTIMER
  D:0006H         SYMBOL        whichTimer
  C:5229H         LINE#         386
  C:522BH         LINE#         387
  C:522BH         LINE#         388
  C:5230H         LINE#         389
  C:5230H         LINE#         390
  C:5234H         LINE#         391
  C:5234H         LINE#         392
  C:5234H         LINE#         393
  C:5234H         LINE#         394
  C:5237H         LINE#         395
  C:523CH         LINE#         396
  C:523CH         LINE#         397
  C:523CH         LINE#         398
  C:523CH         LINE#         399
  C:523CH         LINE#         402
  C:523CH         LINE#         403
  C:523CH         LINE#         404
  C:523CH         LINE#         405
  C:523CH         LINE#         406
  C:523CH         LINE#         410
  C:523CH         LINE#         411
  -------         ENDPROC       _RESTARTTIMER
  -------         PROC          _ONRESTARTTIMER
  D:0006H         SYMBOL        whichTimer
  C:5368H         LINE#         421
  C:536AH         LINE#         422
  C:536AH         LINE#         423
  C:536FH         LINE#         424
  C:536FH         LINE#         425
  C:5372H         LINE#         426
  C:5374H         LINE#         427
  C:5374H         LINE#         429
  C:5374H         LINE#         430
  C:5375H         LINE#         431
  C:5375H         LINE#         433
  -------         ENDPROC       _ONRESTARTTIMER
  -------         PROC          GETMICROS
  C:53A1H         LINE#         437
  C:53A1H         LINE#         438
  C:53A1H         LINE#         440
  C:53A9H         LINE#         441
  -------         ENDPROC       GETMICROS
  -------         PROC          GETMILLIS
  C:53AAH         LINE#         443
  C:53AAH         LINE#         444
  C:53AAH         LINE#         445
  C:53B2H         LINE#         446
  -------         ENDPROC       GETMILLIS
  -------         PROC          GETSECONDS
  C:53CCH         LINE#         447
  C:53CCH         LINE#         448
  C:53CCH         LINE#         449
  C:53D1H         LINE#         450
  -------         ENDPROC       GETSECONDS
BL51 BANKED LINKER/LOCATER V6.00                                                      07/28/2017  08:56:32  PAGE 59


  -------         PROC          GETMINUTES
  C:53D2H         LINE#         451
  C:53D2H         LINE#         452
  C:53D2H         LINE#         453
  C:53D7H         LINE#         454
  -------         ENDPROC       GETMINUTES
  -------         PROC          GETHOURS
  C:53D8H         LINE#         455
  C:53D8H         LINE#         456
  C:53D8H         LINE#         457
  C:53DDH         LINE#         458
  -------         ENDPROC       GETHOURS
  -------         PROC          GETDAYS
  C:53DEH         LINE#         459
  C:53DEH         LINE#         460
  C:53DEH         LINE#         461
  C:53E3H         LINE#         462
  -------         ENDPROC       GETDAYS
  -------         PROC          _TIMER_INILIZE
  D:0005H         SYMBOL        TIM
  D:0001H         SYMBOL        TIMx
  C:2B1CH         LINE#         553
  C:2B1EH         LINE#         554
  C:2B1EH         LINE#         555
  C:2B27H         LINE#         557
  C:2B2AH         LINE#         558
  C:2B2AH         LINE#         559
  C:2B36H         LINE#         560
  C:2B38H         LINE#         561
  C:2B3AH         LINE#         562
  C:2B3CH         LINE#         563
  C:2B3FH         LINE#         564
  C:2B42H         LINE#         565
  C:2B45H         LINE#         566
  C:2B50H         LINE#         567
  C:2B5BH         LINE#         568
  C:2B5EH         LINE#         569
  C:2B6AH         LINE#         570
  C:2B71H         LINE#         571
  C:2B7DH         LINE#         573
  C:2B87H         LINE#         574
  C:2B8FH         LINE#         575
  C:2B9AH         LINE#         576
  C:2B9DH         LINE#         577
  C:2B9DH         LINE#         579
  C:2BA5H         LINE#         580
  C:2BA5H         LINE#         581
  C:2BA7H         LINE#         582
  C:2BB4H         LINE#         583
  C:2BB6H         LINE#         584
  C:2BC3H         LINE#         585
  C:2BC5H         LINE#         586
  C:2BD1H         LINE#         587
  C:2BD8H         LINE#         588
  C:2BE5H         LINE#         589
  C:2BEBH         LINE#         590
  C:2BF4H         LINE#         591
BL51 BANKED LINKER/LOCATER V6.00                                                      07/28/2017  08:56:32  PAGE 60


  C:2BF7H         LINE#         592
  C:2C05H         LINE#         593
  C:2C08H         LINE#         595
  C:2C12H         LINE#         596
  C:2C1AH         LINE#         597
  C:2C25H         LINE#         598
  C:2C28H         LINE#         599
  C:2C28H         LINE#         601
  C:2C2DH         LINE#         602
  C:2C2DH         LINE#         603
  C:2C30H         LINE#         604
  C:2C3EH         LINE#         605
  C:2C41H         LINE#         606
  C:2C50H         LINE#         607
  C:2C57H         LINE#         608
  C:2C62H         LINE#         609
  C:2C70H         LINE#         610
  C:2C73H         LINE#         611
  C:2C81H         LINE#         612
  C:2C84H         LINE#         614
  C:2C8EH         LINE#         615
  C:2C96H         LINE#         616
  C:2CA2H         LINE#         617
  C:2CA5H         LINE#         618
  C:2CA5H         LINE#         620
  C:2CAAH         LINE#         621
  C:2CAAH         LINE#         622
  C:2CB9H         LINE#         623
  C:2CBCH         LINE#         624
  C:2CBFH         LINE#         625
  C:2CCBH         LINE#         626
  C:2CD1H         LINE#         627
  C:2CDDH         LINE#         628
  C:2CE9H         LINE#         630
  C:2CF3H         LINE#         631
  C:2CFBH         LINE#         632
  C:2D07H         LINE#         633
  C:2D0AH         LINE#         634
  C:2D0AH         LINE#         636
  C:2D0FH         LINE#         637
  C:2D0FH         LINE#         638
  C:2D1EH         LINE#         639
  C:2D21H         LINE#         640
  C:2D24H         LINE#         641
  C:2D30H         LINE#         642
  C:2D36H         LINE#         643
  C:2D42H         LINE#         645
  C:2D4EH         LINE#         646
  C:2D50H         LINE#         647
  C:2D5CH         LINE#         648
  C:2D68H         LINE#         650
  C:2D6BH         LINE#         651
  C:2D6BH         LINE#         653
  C:2D6DH         LINE#         654
  -------         ENDPROC       _TIMER_INILIZE
  -------         ENDMOD        TIMER

BL51 BANKED LINKER/LOCATER V6.00                                                      07/28/2017  08:56:32  PAGE 61


  -------         MODULE        USART1
  C:0000H         SYMBOL        _ICE_DUMMY_
  D:0080H         PUBLIC        P0
  D:0090H         PUBLIC        P1
  D:00A0H         PUBLIC        P2
  D:00B0H         PUBLIC        P3
  D:00C0H         PUBLIC        P4
  D:00C8H         PUBLIC        P5
  B:00A8H.7       PUBLIC        EA
  D:00E8H         PUBLIC        P6
  D:00F8H         PUBLIC        P7
  D:00A2H         PUBLIC        P_SW1
  D:00BAH         PUBLIC        P_SW2
  D:00A8H         PUBLIC        IE
  X:0000H         PUBLIC        COM1
  X:0007H         PUBLIC        COM2
  X:000EH         PUBLIC        COM3
  X:0015H         PUBLIC        COM4
  B:00A8H.4       PUBLIC        ES
  D:00B8H         PUBLIC        IP
  X:001CH         PUBLIC        RX1_Buffer
  X:009CH         PUBLIC        RX2_Buffer
  B:0098H.0       PUBLIC        RI
  C:449BH         PUBLIC        UART1_int
  X:011CH         PUBLIC        RX3_Buffer
  X:0138H         PUBLIC        TX1_Buffer
  C:430CH         PUBLIC        UART2_int
  X:01B8H         PUBLIC        RX4_Buffer
  X:01D4H         PUBLIC        TX2_Buffer
  B:0098H.1       PUBLIC        TI
  C:4391H         PUBLIC        UART3_int
  X:0254H         PUBLIC        TX3_Buffer
  C:4416H         PUBLIC        UART4_int
  X:0270H         PUBLIC        TX4_Buffer
  B:00B8H.4       PUBLIC        PS
  D:00D8H         PUBLIC        CCON
  D:0099H         PUBLIC        SBUF
  D:0087H         PUBLIC        PCON
  D:0098H         PUBLIC        SCON
  D:0089H         PUBLIC        TMOD
  D:0088H         PUBLIC        TCON
  C:51EAH         PUBLIC        _PrintString1
  C:5276H         PUBLIC        _PrintString2
  C:5289H         PUBLIC        _PrintString3
  C:529CH         PUBLIC        _PrintString4
  D:00AFH         PUBLIC        IE2
  D:00F0H         PUBLIC        B
  D:008EH         PUBLIC        AUXR
  C:4DB3H         PUBLIC        _TX1_write2buff
  C:4D3BH         PUBLIC        _TX2_write2buff
  C:4D63H         PUBLIC        _TX3_write2buff
  D:00E0H         PUBLIC        ACC
  C:4D8BH         PUBLIC        _TX4_write2buff
  B:00A8H.3       PUBLIC        ET1
  D:00B5H         PUBLIC        IP2
  D:008DH         PUBLIC        TH1
  D:00D6H         PUBLIC        TH2
BL51 BANKED LINKER/LOCATER V6.00                                                      07/28/2017  08:56:32  PAGE 62


  D:00D4H         PUBLIC        TH3
  D:00D2H         PUBLIC        TH4
  D:008BH         PUBLIC        TL1
  D:00D7H         PUBLIC        TL2
  C:126DH         PUBLIC        _USART_Configuration
  D:00D5H         PUBLIC        TL3
  D:00D3H         PUBLIC        TL4
  B:0088H.6       PUBLIC        TR1
  D:00D1H         PUBLIC        T4T3M
  D:009BH         PUBLIC        S2BUF
  D:0097H         PUBLIC        PCON2
  D:00ADH         PUBLIC        S3BUF
  B:0098H.4       PUBLIC        REN
  D:0085H         PUBLIC        S4BUF
  D:009AH         PUBLIC        S2CON
  D:00ACH         PUBLIC        S3CON
  D:0084H         PUBLIC        S4CON
  D:008FH         PUBLIC        INT_CLKO
  D:00D0H         PUBLIC        PSW
  -------         PROC          _USART_CONFIGURATION
  X:0299H         SYMBOL        UARTx
  X:029AH         SYMBOL        COMx
  -------         DO            
  X:029DH         SYMBOL        i
  X:029EH         SYMBOL        j
  -------         ENDDO         
  C:126DH         LINE#         25
  C:127DH         LINE#         26
  C:127DH         LINE#         30
  C:1284H         LINE#         31
  C:1284H         LINE#         32
  C:1289H         LINE#         33
  C:128CH         LINE#         34
  C:128EH         LINE#         35
  C:1290H         LINE#         36
  C:1292H         LINE#         37
  C:1294H         LINE#         38
  C:1296H         LINE#         39
  C:12B8H         LINE#         40
  C:12DBH         LINE#         42
  C:12F1H         LINE#         43
  C:12FEH         LINE#         44
  C:1300H         LINE#         45
  C:130BH         LINE#         46
  C:1318H         LINE#         47
  C:1318H         LINE#         48
  C:132FH         LINE#         49
  C:134CH         LINE#         50
  C:136EH         LINE#         51
  C:1384H         LINE#         52
  C:1384H         LINE#         53
  C:1386H         LINE#         54
  C:1389H         LINE#         55
  C:138CH         LINE#         56
  C:138FH         LINE#         57
  C:1392H         LINE#         58
  C:13A7H         LINE#         59
BL51 BANKED LINKER/LOCATER V6.00                                                      07/28/2017  08:56:32  PAGE 63


  C:13B0H         LINE#         60
  C:13B2H         LINE#         61
  C:13B5H         LINE#         62
  C:13B8H         LINE#         63
  C:13BAH         LINE#         64
  C:13BCH         LINE#         65
  C:13C1H         LINE#         66
  C:13C1H         LINE#         67
  C:13C4H         LINE#         68
  C:13C7H         LINE#         69
  C:13CAH         LINE#         70
  C:13CDH         LINE#         71
  C:13E2H         LINE#         72
  C:13EBH         LINE#         73
  C:13EEH         LINE#         74
  C:13F1H         LINE#         75
  C:13F4H         LINE#         76
  C:13F6H         LINE#         77
  C:13F9H         LINE#         78
  C:13F9H         LINE#         79
  C:140AH         LINE#         80
  C:140AH         LINE#         81
  C:1418H         LINE#         82
  C:141BH         LINE#         83
  C:141DH         LINE#         84
  C:1421H         LINE#         85
  C:1421H         LINE#         86
  C:142FH         LINE#         87
  C:1432H         LINE#         88
  C:1432H         LINE#         89
  C:144AH         LINE#         90
  C:144CH         LINE#         91
  C:1459H         LINE#         92
  C:145BH         LINE#         93
  C:146BH         LINE#         94
  C:1479H         LINE#         95
  C:147CH         LINE#         96
  C:147FH         LINE#         97
  C:147FH         LINE#         99
  C:148AH         LINE#         100
  C:148AH         LINE#         101
  C:1490H         LINE#         102
  C:1493H         LINE#         103
  C:1495H         LINE#         104
  C:1497H         LINE#         105
  C:1499H         LINE#         106
  C:149BH         LINE#         107
  C:149DH         LINE#         108
  C:14BFH         LINE#         109
  C:14E2H         LINE#         111
  C:14FDH         LINE#         112
  C:14FDH         LINE#         113
  C:150BH         LINE#         114
  C:150EH         LINE#         115
  C:1519H         LINE#         116
  C:151CH         LINE#         117
  C:1533H         LINE#         118
BL51 BANKED LINKER/LOCATER V6.00                                                      07/28/2017  08:56:32  PAGE 64


  C:1550H         LINE#         119
  C:1572H         LINE#         120
  C:1575H         LINE#         121
  C:1578H         LINE#         122
  C:157BH         LINE#         123
  C:1590H         LINE#         124
  C:1599H         LINE#         125
  C:159CH         LINE#         126
  C:159FH         LINE#         127
  C:15A1H         LINE#         128
  C:15A4H         LINE#         129
  C:15BDH         LINE#         130
  C:15C0H         LINE#         131
  C:15CEH         LINE#         132
  C:15D1H         LINE#         133
  C:15E1H         LINE#         134
  C:15E1H         LINE#         136
  C:15ECH         LINE#         137
  C:15ECH         LINE#         138
  C:15F2H         LINE#         139
  C:15F5H         LINE#         140
  C:15F7H         LINE#         141
  C:15F9H         LINE#         142
  C:15FBH         LINE#         143
  C:15FDH         LINE#         144
  C:15FFH         LINE#         145
  C:1621H         LINE#         146
  C:1644H         LINE#         147
  C:165FH         LINE#         148
  C:165FH         LINE#         149
  C:1662H         LINE#         150
  C:166BH         LINE#         151
  C:166EH         LINE#         152
  C:1690H         LINE#         153
  C:16ADH         LINE#         154
  C:16CFH         LINE#         155
  C:16E5H         LINE#         156
  C:16E5H         LINE#         157
  C:16E8H         LINE#         158
  C:16EBH         LINE#         159
  C:16EEH         LINE#         160
  C:16F1H         LINE#         161
  C:1706H         LINE#         162
  C:170FH         LINE#         163
  C:1712H         LINE#         164
  C:1715H         LINE#         165
  C:1717H         LINE#         166
  C:171CH         LINE#         167
  C:171CH         LINE#         168
  C:171FH         LINE#         169
  C:1722H         LINE#         170
  C:1725H         LINE#         171
  C:1728H         LINE#         172
  C:172BH         LINE#         173
  C:172EH         LINE#         174
  C:1743H         LINE#         175
  C:174CH         LINE#         176
BL51 BANKED LINKER/LOCATER V6.00                                                      07/28/2017  08:56:32  PAGE 65


  C:174FH         LINE#         177
  C:1751H         LINE#         178
  C:1754H         LINE#         179
  C:1754H         LINE#         180
  C:1757H         LINE#         181
  C:1770H         LINE#         182
  C:1773H         LINE#         183
  C:1781H         LINE#         184
  C:1784H         LINE#         185
  C:1791H         LINE#         186
  C:1794H         LINE#         188
  C:1794H         LINE#         190
  C:179FH         LINE#         191
  C:179FH         LINE#         192
  C:17A5H         LINE#         193
  C:17A8H         LINE#         194
  C:17AAH         LINE#         195
  C:17ACH         LINE#         196
  C:17AEH         LINE#         197
  C:17B0H         LINE#         198
  C:17B2H         LINE#         199
  C:17D4H         LINE#         200
  C:17F7H         LINE#         202
  C:1812H         LINE#         203
  C:1812H         LINE#         204
  C:1815H         LINE#         205
  C:181EH         LINE#         206
  C:1821H         LINE#         207
  C:1843H         LINE#         208
  C:1860H         LINE#         209
  C:1882H         LINE#         210
  C:1898H         LINE#         211
  C:1898H         LINE#         212
  C:189BH         LINE#         213
  C:189EH         LINE#         214
  C:18A1H         LINE#         215
  C:18A4H         LINE#         216
  C:18B9H         LINE#         217
  C:18C2H         LINE#         218
  C:18C5H         LINE#         219
  C:18C8H         LINE#         220
  C:18CAH         LINE#         221
  C:18CFH         LINE#         222
  C:18CFH         LINE#         223
  C:18D2H         LINE#         224
  C:18D5H         LINE#         225
  C:18D8H         LINE#         226
  C:18DBH         LINE#         227
  C:18DEH         LINE#         228
  C:18E1H         LINE#         229
  C:18F6H         LINE#         230
  C:18FFH         LINE#         231
  C:1902H         LINE#         232
  C:1904H         LINE#         233
  C:1907H         LINE#         234
  C:1907H         LINE#         235
  C:190AH         LINE#         236
BL51 BANKED LINKER/LOCATER V6.00                                                      07/28/2017  08:56:32  PAGE 66


  C:1923H         LINE#         237
  C:1926H         LINE#         238
  C:1934H         LINE#         239
  C:1937H         LINE#         240
  C:1947H         LINE#         241
  C:194AH         LINE#         242
  C:194AH         LINE#         244
  C:194CH         LINE#         245
  -------         ENDPROC       _USART_CONFIGURATION
  -------         PROC          _TX1_WRITE2BUFF
  D:0007H         SYMBOL        dat
  C:4DB3H         LINE#         250
  C:4DB3H         LINE#         251
  C:4DB3H         LINE#         252
  C:4DC2H         LINE#         253
  C:4DCFH         LINE#         255
  C:4DD5H         LINE#         256
  C:4DD5H         LINE#         257
  C:4DD7H         LINE#         258
  C:4DD9H         LINE#         259
  C:4DD9H         LINE#         260
  -------         ENDPROC       _TX1_WRITE2BUFF
  -------         PROC          _TX2_WRITE2BUFF
  D:0007H         SYMBOL        dat
  C:4D3BH         LINE#         262
  C:4D3BH         LINE#         263
  C:4D3BH         LINE#         264
  C:4D4AH         LINE#         265
  C:4D57H         LINE#         267
  C:4D5DH         LINE#         268
  C:4D5DH         LINE#         269
  C:4D5FH         LINE#         270
  C:4D62H         LINE#         271
  C:4D62H         LINE#         272
  -------         ENDPROC       _TX2_WRITE2BUFF
  -------         PROC          _TX3_WRITE2BUFF
  D:0007H         SYMBOL        dat
  C:4D63H         LINE#         274
  C:4D63H         LINE#         275
  C:4D63H         LINE#         276
  C:4D72H         LINE#         277
  C:4D7FH         LINE#         279
  C:4D85H         LINE#         280
  C:4D85H         LINE#         281
  C:4D87H         LINE#         282
  C:4D8AH         LINE#         283
  C:4D8AH         LINE#         284
  -------         ENDPROC       _TX3_WRITE2BUFF
  -------         PROC          _TX4_WRITE2BUFF
  D:0007H         SYMBOL        dat
  C:4D8BH         LINE#         286
  C:4D8BH         LINE#         287
  C:4D8BH         LINE#         288
  C:4D9AH         LINE#         289
  C:4DA7H         LINE#         291
  C:4DADH         LINE#         292
  C:4DADH         LINE#         293
BL51 BANKED LINKER/LOCATER V6.00                                                      07/28/2017  08:56:32  PAGE 67


  C:4DAFH         LINE#         294
  C:4DB2H         LINE#         295
  C:4DB2H         LINE#         296
  -------         ENDPROC       _TX4_WRITE2BUFF
  -------         PROC          _PRINTSTRING1
  D:0001H         SYMBOL        puts
  C:51EAH         LINE#         298
  C:51EAH         LINE#         299
  C:51EAH         LINE#         300
  C:51ECH         LINE#         301
  C:51FEH         LINE#         302
  C:5200H         LINE#         303
  -------         ENDPROC       _PRINTSTRING1
  -------         PROC          _PRINTSTRING2
  D:0001H         SYMBOL        puts
  C:5276H         LINE#         305
  C:5276H         LINE#         306
  C:5276H         LINE#         307
  C:5288H         LINE#         308
  -------         ENDPROC       _PRINTSTRING2
  -------         PROC          _PRINTSTRING3
  D:0001H         SYMBOL        puts
  C:5289H         LINE#         310
  C:5289H         LINE#         311
  C:5289H         LINE#         312
  C:529BH         LINE#         313
  -------         ENDPROC       _PRINTSTRING3
  -------         PROC          _PRINTSTRING4
  D:0001H         SYMBOL        puts
  C:529CH         LINE#         315
  C:529CH         LINE#         316
  C:529CH         LINE#         317
  C:52AEH         LINE#         318
  -------         ENDPROC       _PRINTSTRING4
  -------         PROC          UART1_INT
  C:449BH         LINE#         325
  C:44AAH         LINE#         327
  C:44ADH         LINE#         328
  C:44ADH         LINE#         329
  C:44AFH         LINE#         330
  C:44B5H         LINE#         331
  C:44B5H         LINE#         332
  C:44C0H         LINE#         333
  C:44D4H         LINE#         334
  C:44DAH         LINE#         335
  C:44DAH         LINE#         336
  C:44DAH         LINE#         338
  C:44DDH         LINE#         339
  C:44DDH         LINE#         340
  C:44DFH         LINE#         341
  C:44ECH         LINE#         342
  C:44ECH         LINE#         343
  C:44F9H         LINE#         344
  C:4506H         LINE#         345
  C:4508H         LINE#         346
  C:450DH         LINE#         347
  C:450DH         LINE#         348
BL51 BANKED LINKER/LOCATER V6.00                                                      07/28/2017  08:56:32  PAGE 68


  -------         ENDPROC       UART1_INT
  -------         PROC          UART2_INT
  C:430CH         LINE#         351
  C:431BH         LINE#         353
  C:4320H         LINE#         354
  C:4320H         LINE#         355
  C:4323H         LINE#         356
  C:4329H         LINE#         357
  C:4329H         LINE#         358
  C:4334H         LINE#         359
  C:4348H         LINE#         360
  C:434EH         LINE#         361
  C:434EH         LINE#         362
  C:434EH         LINE#         364
  C:4353H         LINE#         365
  C:4353H         LINE#         366
  C:4356H         LINE#         367
  C:4363H         LINE#         368
  C:4363H         LINE#         369
  C:4370H         LINE#         370
  C:437DH         LINE#         371
  C:437FH         LINE#         372
  C:4384H         LINE#         373
  C:4384H         LINE#         375
  -------         ENDPROC       UART2_INT
  -------         PROC          UART3_INT
  C:4391H         LINE#         379
  C:43A0H         LINE#         381
  C:43A5H         LINE#         382
  C:43A5H         LINE#         383
  C:43A8H         LINE#         384
  C:43AEH         LINE#         385
  C:43AEH         LINE#         386
  C:43B9H         LINE#         387
  C:43CDH         LINE#         388
  C:43D3H         LINE#         389
  C:43D3H         LINE#         390
  C:43D3H         LINE#         392
  C:43D8H         LINE#         393
  C:43D8H         LINE#         394
  C:43DBH         LINE#         395
  C:43E8H         LINE#         396
  C:43E8H         LINE#         397
  C:43F5H         LINE#         398
  C:4402H         LINE#         399
  C:4404H         LINE#         400
  C:4409H         LINE#         401
  C:4409H         LINE#         403
  -------         ENDPROC       UART3_INT
  -------         PROC          UART4_INT
  C:4416H         LINE#         407
  C:4425H         LINE#         409
  C:442AH         LINE#         410
  C:442AH         LINE#         411
  C:442DH         LINE#         412
  C:4433H         LINE#         413
  C:4433H         LINE#         414
BL51 BANKED LINKER/LOCATER V6.00                                                      07/28/2017  08:56:32  PAGE 69


  C:443EH         LINE#         415
  C:4452H         LINE#         416
  C:4458H         LINE#         417
  C:4458H         LINE#         418
  C:4458H         LINE#         420
  C:445DH         LINE#         421
  C:445DH         LINE#         422
  C:4460H         LINE#         423
  C:446DH         LINE#         424
  C:446DH         LINE#         425
  C:447AH         LINE#         426
  C:4487H         LINE#         427
  C:4489H         LINE#         428
  C:448EH         LINE#         429
  C:448EH         LINE#         431
  -------         ENDPROC       UART4_INT
  -------         ENDMOD        USART1

  -------         MODULE        ?C?FPADD
  C:0807H         PUBLIC        ?C?FPADD
  C:0803H         PUBLIC        ?C?FPSUB
  -------         ENDMOD        ?C?FPADD

  -------         MODULE        ?C?FPMUL
  C:08F8H         PUBLIC        ?C?FPMUL
  -------         ENDMOD        ?C?FPMUL

  -------         MODULE        ?C?FPDIV
  C:0A01H         PUBLIC        ?C?FPDIV
  -------         ENDMOD        ?C?FPDIV

  -------         MODULE        ?C?FPCMP
  C:0AA0H         PUBLIC        ?C?FPCMP
  C:0A9EH         PUBLIC        ?C?FPCMP3
  -------         ENDMOD        ?C?FPCMP

  -------         MODULE        ?C?FCAST
  C:0B15H         PUBLIC        ?C?FCASTC
  C:0B10H         PUBLIC        ?C?FCASTI
  C:0B0BH         PUBLIC        ?C?FCASTL
  -------         ENDMOD        ?C?FCAST

  -------         MODULE        ?C?CASTF
  C:0B49H         PUBLIC        ?C?CASTF
  -------         ENDMOD        ?C?CASTF

  -------         MODULE        PRINTF
  X:034EH         PUBLIC        ?_PRINTF?BYTE
  X:034EH         PUBLIC        ?_SPRINTF?BYTE
  C:1E69H         PUBLIC        _PRINTF
  C:1E63H         PUBLIC        _SPRINTF
  -------         ENDMOD        PRINTF

  -------         MODULE        FABS
  C:5376H         PUBLIC        _FABS
  -------         ENDMOD        FABS

BL51 BANKED LINKER/LOCATER V6.00                                                      07/28/2017  08:56:32  PAGE 70


  -------         MODULE        SQRT
  C:3F55H         PUBLIC        _SQRT
  -------         ENDMOD        SQRT

  -------         MODULE        SIN
  C:3146H         PUBLIC        _COS
  C:315CH         PUBLIC        _SIN
  C:3198H         PUBLIC        _TAN
  -------         ENDMOD        SIN

  -------         MODULE        POW
  X:035BH         PUBLIC        ?_pow?BYTE
  C:3286H         PUBLIC        _pow
  -------         ENDMOD        POW

  -------         MODULE        ?C?CHKFLOAT
  C:0BCAH         PUBLIC        ?C?CHKFLOAT
  -------         ENDMOD        ?C?CHKFLOAT

  -------         MODULE        ?C?FPNEG
  C:0BE4H         PUBLIC        ?C?FPNEG
  -------         ENDMOD        ?C?FPNEG

  -------         MODULE        ?C?FPROUND
  C:0BF5H         PUBLIC        ?C?FPROUND
  -------         ENDMOD        ?C?FPROUND

  -------         MODULE        ?C?FPCONVERT
  C:0C32H         PUBLIC        ?C?FPCONVERT
  -------         ENDMOD        ?C?FPCONVERT

  -------         MODULE        EXP
  C:421EH         PUBLIC        _EXP
  -------         ENDMOD        EXP

  -------         MODULE        LOG
  C:368AH         PUBLIC        _LOG
  C:3686H         PUBLIC        _LOG10
  -------         ENDMOD        LOG

  -------         MODULE        ?C?FTNPWR
  C:0DB4H         PUBLIC        ?C?FTNPWR
  -------         ENDMOD        ?C?FTNPWR

  -------         MODULE        ?C?COPY
  C:0EC4H         PUBLIC        ?C?COPY
  -------         ENDMOD        ?C?COPY

  -------         MODULE        ?C?CLDPTR
  C:0EEAH         PUBLIC        ?C?CLDPTR
  -------         ENDMOD        ?C?CLDPTR

  -------         MODULE        ?C?CLDOPTR
  C:0F03H         PUBLIC        ?C?CLDOPTR
  -------         ENDMOD        ?C?CLDOPTR

  -------         MODULE        ?C?CSTPTR
BL51 BANKED LINKER/LOCATER V6.00                                                      07/28/2017  08:56:32  PAGE 71


  C:0F30H         PUBLIC        ?C?CSTPTR
  -------         ENDMOD        ?C?CSTPTR

  -------         MODULE        ?C?CSTOPTR
  C:0F42H         PUBLIC        ?C?CSTOPTR
  -------         ENDMOD        ?C?CSTOPTR

  -------         MODULE        ?C?IMUL
  C:0F64H         PUBLIC        ?C?IMUL
  -------         ENDMOD        ?C?IMUL

  -------         MODULE        ?C?UIDIV
  C:0F76H         PUBLIC        ?C?UIDIV
  -------         ENDMOD        ?C?UIDIV

  -------         MODULE        ?C?IILDX
  C:0FCBH         PUBLIC        ?C?IILDX
  -------         ENDMOD        ?C?IILDX

  -------         MODULE        ?C?ILDOPTR
  C:0FE1H         PUBLIC        ?C?ILDOPTR
  -------         ENDMOD        ?C?ILDOPTR

  -------         MODULE        ?C?LMUL
  C:1019H         PUBLIC        ?C?LMUL
  -------         ENDMOD        ?C?LMUL

  -------         MODULE        ?C?ULDIV
  C:10A4H         PUBLIC        ?C?ULDIV
  -------         ENDMOD        ?C?ULDIV

  -------         MODULE        ?C?SLDIV
  C:4A79H         PUBLIC        ?C?SLDIV
  -------         ENDMOD        ?C?SLDIV

  -------         MODULE        ?C?LNEG
  C:1136H         PUBLIC        ?C?LNEG
  -------         ENDMOD        ?C?LNEG

  -------         MODULE        ?C?ULCMP
  C:1144H         PUBLIC        ?C?ULCMP
  -------         ENDMOD        ?C?ULCMP

  -------         MODULE        ?C?ULSHR
  C:1155H         PUBLIC        ?C?ULSHR
  -------         ENDMOD        ?C?ULSHR

  -------         MODULE        ?C?LLDXDATA
  C:1168H         PUBLIC        ?C?LLDXDATA
  -------         ENDMOD        ?C?LLDXDATA

  -------         MODULE        ?C?LLDCODE
  C:1174H         PUBLIC        ?C?LLDCODE
  -------         ENDMOD        ?C?LLDCODE

  -------         MODULE        ?C?LLDXDATA0
  C:1184H         PUBLIC        ?C?LLDXDATA0
BL51 BANKED LINKER/LOCATER V6.00                                                      07/28/2017  08:56:32  PAGE 72


  -------         ENDMOD        ?C?LLDXDATA0

  -------         MODULE        ?C?LLDCODE0
  C:1190H         PUBLIC        ?C?LLDCODE0
  -------         ENDMOD        ?C?LLDCODE0

  -------         MODULE        ?C?LLDOPTR0
  C:11A0H         PUBLIC        ?C?LLDOPTR0
  -------         ENDMOD        ?C?LLDOPTR0

  -------         MODULE        ?C?LSTXDATA
  C:11D0H         PUBLIC        ?C?LSTXDATA
  -------         ENDMOD        ?C?LSTXDATA

  -------         MODULE        ?C?LSTKXDATA
  C:11DCH         PUBLIC        ?C?LSTKXDATA
  -------         ENDMOD        ?C?LSTKXDATA

  -------         MODULE        ?C?PLDIXDATA
  C:120DH         PUBLIC        ?C?PLDIXDATA
  -------         ENDMOD        ?C?PLDIXDATA

  -------         MODULE        ?C?PSTXDATA
  C:1224H         PUBLIC        ?C?PSTXDATA
  -------         ENDMOD        ?C?PSTXDATA

  -------         MODULE        ?C?CCASE
  C:122DH         PUBLIC        ?C?CCASE
  -------         ENDMOD        ?C?CCASE

  -------         MODULE        PUTCHAR
  C:4DDAH         PUBLIC        _PUTCHAR
  -------         ENDMOD        PUTCHAR

  -------         MODULE        ?C?LLDIDATA0
  C:1253H         PUBLIC        ?C?LLDIDATA0
  -------         ENDMOD        ?C?LLDIDATA0

  -------         MODULE        ?C?LLDPDATA0
  C:1260H         PUBLIC        ?C?LLDPDATA0
  -------         ENDMOD        ?C?LLDPDATA0

*** WARNING L16: UNCALLED SEGMENT, IGNORED FOR OVERLAY PROCESS
    SEGMENT: ?PR?DRAWLOOPSRTLINE?ABSTASK

*** WARNING L16: UNCALLED SEGMENT, IGNORED FOR OVERLAY PROCESS
    SEGMENT: ?PR?DRAWLOOPRECTANGLE?ABSTASK

*** WARNING L16: UNCALLED SEGMENT, IGNORED FOR OVERLAY PROCESS
    SEGMENT: ?PR?DRAWLINE?ABSTASK

*** WARNING L16: UNCALLED SEGMENT, IGNORED FOR OVERLAY PROCESS
    SEGMENT: ?PR?STOPSYSTEM?TASK

*** WARNING L16: UNCALLED SEGMENT, IGNORED FOR OVERLAY PROCESS
    SEGMENT: ?PR?TEST?SETUP

BL51 BANKED LINKER/LOCATER V6.00                                                      07/28/2017  08:56:32  PAGE 73


*** WARNING L16: UNCALLED SEGMENT, IGNORED FOR OVERLAY PROCESS
    SEGMENT: ?PR?MODE1?MODE

*** WARNING L16: UNCALLED SEGMENT, IGNORED FOR OVERLAY PROCESS
    SEGMENT: ?PR?MODE2?MODE

*** WARNING L16: UNCALLED SEGMENT, IGNORED FOR OVERLAY PROCESS
    SEGMENT: ?PR?MODE3?MODE

*** WARNING L16: UNCALLED SEGMENT, IGNORED FOR OVERLAY PROCESS
    SEGMENT: ?PR?MODE4?MODE

*** WARNING L16: UNCALLED SEGMENT, IGNORED FOR OVERLAY PROCESS
    SEGMENT: ?PR?MODELAUNCHER?MODE

*** WARNING L16: UNCALLED SEGMENT, IGNORED FOR OVERLAY PROCESS
    SEGMENT: ?PR?_FILTER?FILTER

*** WARNING L16: UNCALLED SEGMENT, IGNORED FOR OVERLAY PROCESS
    SEGMENT: ?PR?_SENDSCOPEDATA?DATASCOPE_DP

*** WARNING L16: UNCALLED SEGMENT, IGNORED FOR OVERLAY PROCESS
    SEGMENT: ?PR?_WRITEDATA?STORAGE

*** WARNING L16: UNCALLED SEGMENT, IGNORED FOR OVERLAY PROCESS
    SEGMENT: ?PR?BUTTON_CONFIG?BUTTON

*** WARNING L16: UNCALLED SEGMENT, IGNORED FOR OVERLAY PROCESS
    SEGMENT: ?PR?_GETBUTTONSTATE?BUTTON

*** WARNING L16: UNCALLED SEGMENT, IGNORED FOR OVERLAY PROCESS
    SEGMENT: ?PR?BUTTONSCAN?BUTTON

*** WARNING L16: UNCALLED SEGMENT, IGNORED FOR OVERLAY PROCESS
    SEGMENT: ?PR?GETBOARD_LED_STATE?LED

*** WARNING L16: UNCALLED SEGMENT, IGNORED FOR OVERLAY PROCESS
    SEGMENT: ?PR?_BOARD_LED_PWM?LED

*** WARNING L16: UNCALLED SEGMENT, IGNORED FOR OVERLAY PROCESS
    SEGMENT: ?PR?_SETSTEPMOTORWITHDISTANCE?STEP_MOTOR

*** WARNING L16: UNCALLED SEGMENT, IGNORED FOR OVERLAY PROCESS
    SEGMENT: ?PR?_SETSTEPMOTORWITHROUND?STEP_MOTOR

*** WARNING L16: UNCALLED SEGMENT, IGNORED FOR OVERLAY PROCESS
    SEGMENT: ?PR?_FREESTEPMOTOR?STEP_MOTOR

*** WARNING L16: UNCALLED SEGMENT, IGNORED FOR OVERLAY PROCESS
    SEGMENT: ?PR?_LOCKSTEPMOTOR?STEP_MOTOR

*** WARNING L16: UNCALLED SEGMENT, IGNORED FOR OVERLAY PROCESS
    SEGMENT: ?PR?_LCD_CLR_ROW?LCD5510_V2

*** WARNING L16: UNCALLED SEGMENT, IGNORED FOR OVERLAY PROCESS
    SEGMENT: ?PR?_LCD_PRINTS?LCD5510_V2

BL51 BANKED LINKER/LOCATER V6.00                                                      07/28/2017  08:56:32  PAGE 74


*** WARNING L16: UNCALLED SEGMENT, IGNORED FOR OVERLAY PROCESS
    SEGMENT: ?PR?_LCD_PRINTSL?LCD5510_V2

*** WARNING L16: UNCALLED SEGMENT, IGNORED FOR OVERLAY PROCESS
    SEGMENT: ?PR?LCD5510_INIT?LCD5510_V2

*** WARNING L16: UNCALLED SEGMENT, IGNORED FOR OVERLAY PROCESS
    SEGMENT: ?PR?_SETPINSTATE?GPIO

*** WARNING L16: UNCALLED SEGMENT, IGNORED FOR OVERLAY PROCESS
    SEGMENT: ?PR?_SET_PWM_PERIOD?STC15_PWM

*** WARNING L16: UNCALLED SEGMENT, IGNORED FOR OVERLAY PROCESS
    SEGMENT: ?PR?_GET_PWM_PERIOD?STC15_PWM

*** WARNING L16: UNCALLED SEGMENT, IGNORED FOR OVERLAY PROCESS
    SEGMENT: ?PR?_SET_PWM_DUTY?STC15_PWM

*** WARNING L16: UNCALLED SEGMENT, IGNORED FOR OVERLAY PROCESS
    SEGMENT: ?PR?_GET_PWM_N_DUTY?STC15_PWM

*** WARNING L16: UNCALLED SEGMENT, IGNORED FOR OVERLAY PROCESS
    SEGMENT: ?PR?_SETPWM_DIV?STC15_PWM

*** WARNING L16: UNCALLED SEGMENT, IGNORED FOR OVERLAY PROCESS
    SEGMENT: ?PR?_GETPWM_DIV?STC15_PWM

*** WARNING L16: UNCALLED SEGMENT, IGNORED FOR OVERLAY PROCESS
    SEGMENT: ?PR?OPEN_PWM_ALL?STC15_PWM

*** WARNING L16: UNCALLED SEGMENT, IGNORED FOR OVERLAY PROCESS
    SEGMENT: ?PR?CLOSE_PWM_ALL?STC15_PWM

*** WARNING L16: UNCALLED SEGMENT, IGNORED FOR OVERLAY PROCESS
    SEGMENT: ?PR?_OPEN_PWM_N?STC15_PWM

*** WARNING L16: UNCALLED SEGMENT, IGNORED FOR OVERLAY PROCESS
    SEGMENT: ?PR?_CLOSE_PWM_N?STC15_PWM

*** WARNING L16: UNCALLED SEGMENT, IGNORED FOR OVERLAY PROCESS
    SEGMENT: ?PR?_GET_PWM_N_STATE?STC15_PWM

*** WARNING L16: UNCALLED SEGMENT, IGNORED FOR OVERLAY PROCESS
    SEGMENT: ?PR?_PWM_INILIZE?STC15_PWM

*** WARNING L16: UNCALLED SEGMENT, IGNORED FOR OVERLAY PROCESS
    SEGMENT: ?PR?_SETTIMEOUT?TIMER

*** WARNING L16: UNCALLED SEGMENT, IGNORED FOR OVERLAY PROCESS
    SEGMENT: ?PR?_GETTIMEROUT?TIMER

*** WARNING L16: UNCALLED SEGMENT, IGNORED FOR OVERLAY PROCESS
    SEGMENT: ?PR?_SETTIMERHERTZ?TIMER

*** WARNING L16: UNCALLED SEGMENT, IGNORED FOR OVERLAY PROCESS
    SEGMENT: ?PR?_GETTIMERHERTZ?TIMER

BL51 BANKED LINKER/LOCATER V6.00                                                      07/28/2017  08:56:32  PAGE 75


*** WARNING L16: UNCALLED SEGMENT, IGNORED FOR OVERLAY PROCESS
    SEGMENT: ?PR?_STOPTIMER?TIMER

*** WARNING L16: UNCALLED SEGMENT, IGNORED FOR OVERLAY PROCESS
    SEGMENT: ?PR?_ISSTOPPED?TIMER

*** WARNING L16: UNCALLED SEGMENT, IGNORED FOR OVERLAY PROCESS
    SEGMENT: ?PR?_ONRESTARTTIMER?TIMER

*** WARNING L16: UNCALLED SEGMENT, IGNORED FOR OVERLAY PROCESS
    SEGMENT: ?PR?GETMICROS?TIMER

*** WARNING L16: UNCALLED SEGMENT, IGNORED FOR OVERLAY PROCESS
    SEGMENT: ?PR?GETMILLIS?TIMER

*** WARNING L16: UNCALLED SEGMENT, IGNORED FOR OVERLAY PROCESS
    SEGMENT: ?PR?GETSECONDS?TIMER

*** WARNING L16: UNCALLED SEGMENT, IGNORED FOR OVERLAY PROCESS
    SEGMENT: ?PR?GETMINUTES?TIMER

*** WARNING L16: UNCALLED SEGMENT, IGNORED FOR OVERLAY PROCESS
    SEGMENT: ?PR?GETHOURS?TIMER

*** WARNING L16: UNCALLED SEGMENT, IGNORED FOR OVERLAY PROCESS
    SEGMENT: ?PR?GETDAYS?TIMER

*** WARNING L16: UNCALLED SEGMENT, IGNORED FOR OVERLAY PROCESS
    SEGMENT: ?PR?_PRINTSTRING2?USART1

*** WARNING L16: UNCALLED SEGMENT, IGNORED FOR OVERLAY PROCESS
    SEGMENT: ?PR?_PRINTSTRING3?USART1

*** WARNING L16: UNCALLED SEGMENT, IGNORED FOR OVERLAY PROCESS
    SEGMENT: ?PR?_PRINTSTRING4?USART1

*** WARNING L15: MULTIPLE CALL TO SEGMENT
    SEGMENT: ?PR?PRINTF?PRINTF
    CALLER1: ?PR?TASKSTART?ABSTASK
    CALLER2: ?PR?SYSTEMTEST?ABSTASK

******************************************************************************
* RESTRICTED VERSION WITH FFFFH BYTE CODE SIZE LIMIT; USED: 353AH BYTE (20%) *
******************************************************************************

Program Size: data=54.2 xdata=1452 code=19474
LINK/LOCATE RUN COMPLETE.  56 WARNING(S),  0 ERROR(S)
